
TowerDefence.elf:     file format elf32-littlenios2
TowerDefence.elf
architecture: nios2, flags 0x00000112:
EXEC_P, HAS_SYMS, D_PAGED
start address 0x008001b4

Program Header:
    LOAD off    0x00001000 vaddr 0x00800000 paddr 0x00800000 align 2**12
         filesz 0x00000020 memsz 0x00000020 flags r-x
    LOAD off    0x00001020 vaddr 0x00800020 paddr 0x00800020 align 2**12
         filesz 0x0001559c memsz 0x0001559c flags r-x
    LOAD off    0x000165bc vaddr 0x008155bc paddr 0x0081c538 align 2**12
         filesz 0x00006f7c memsz 0x00006f7c flags rw-
    LOAD off    0x0001e4b4 vaddr 0x008234b4 paddr 0x008234b4 align 2**12
         filesz 0x00000000 memsz 0x00000898 flags rw-

Sections:
Idx Name          Size      VMA       LMA       File off  Algn
  0 .entry        00000020  00800000  00800000  00001000  2**5
                  CONTENTS, ALLOC, LOAD, READONLY, CODE
  1 .exceptions   00000194  00800020  00800020  00001020  2**2
                  CONTENTS, ALLOC, LOAD, READONLY, CODE
  2 .text         00014f5c  008001b4  008001b4  000011b4  2**2
                  CONTENTS, ALLOC, LOAD, READONLY, CODE
  3 .rodata       000004ac  00815110  00815110  00016110  2**2
                  CONTENTS, ALLOC, LOAD, READONLY, DATA
  4 .rwdata       00006f7c  008155bc  0081c538  000165bc  2**2
                  CONTENTS, ALLOC, LOAD, DATA, SMALL_DATA
  5 .bss          00000898  008234b4  008234b4  0001e4b4  2**2
                  ALLOC, SMALL_DATA
  6 .comment      00000026  00000000  00000000  0001d538  2**0
                  CONTENTS, READONLY
  7 .debug_aranges 00001018  00000000  00000000  0001d560  2**3
                  CONTENTS, READONLY, DEBUGGING
  8 .debug_pubnames 0000271b  00000000  00000000  0001e578  2**0
                  CONTENTS, READONLY, DEBUGGING
  9 .debug_info   0002ec94  00000000  00000000  00020c93  2**0
                  CONTENTS, READONLY, DEBUGGING
 10 .debug_abbrev 00009c63  00000000  00000000  0004f927  2**0
                  CONTENTS, READONLY, DEBUGGING
 11 .debug_line   0001aa75  00000000  00000000  0005958a  2**0
                  CONTENTS, READONLY, DEBUGGING
 12 .debug_frame  00002508  00000000  00000000  00074000  2**2
                  CONTENTS, READONLY, DEBUGGING
 13 .debug_str    00002da2  00000000  00000000  00076508  2**0
                  CONTENTS, READONLY, DEBUGGING
 14 .debug_loc    0000d62d  00000000  00000000  000792aa  2**0
                  CONTENTS, READONLY, DEBUGGING
 15 .debug_alt_sim_info 00000060  00000000  00000000  000868d8  2**2
                  CONTENTS, READONLY, DEBUGGING
 16 .debug_ranges 000009d0  00000000  00000000  00086938  2**3
                  CONTENTS, READONLY, DEBUGGING
 17 .thread_model 00000003  00000000  00000000  0008b7b0  2**0
                  CONTENTS, READONLY
 18 .cpu          0000000f  00000000  00000000  0008b7b3  2**0
                  CONTENTS, READONLY
 19 .qsys         00000001  00000000  00000000  0008b7c2  2**0
                  CONTENTS, READONLY
 20 .simulation_enabled 00000001  00000000  00000000  0008b7c3  2**0
                  CONTENTS, READONLY
 21 .stderr_dev   00000009  00000000  00000000  0008b7c4  2**0
                  CONTENTS, READONLY
 22 .stdin_dev    00000009  00000000  00000000  0008b7cd  2**0
                  CONTENTS, READONLY
 23 .stdout_dev   00000009  00000000  00000000  0008b7d6  2**0
                  CONTENTS, READONLY
 24 .sopc_system_name 0000000b  00000000  00000000  0008b7df  2**0
                  CONTENTS, READONLY
 25 .quartus_project_dir 00000031  00000000  00000000  0008b7ea  2**0
                  CONTENTS, READONLY
 26 .jdi          00005a6e  00000000  00000000  0008b81b  2**0
                  CONTENTS, READONLY
 27 .sopcinfo     00069787  00000000  00000000  00091289  2**0
                  CONTENTS, READONLY
SYMBOL TABLE:
00800000 l    d  .entry	00000000 .entry
00800020 l    d  .exceptions	00000000 .exceptions
008001b4 l    d  .text	00000000 .text
00815110 l    d  .rodata	00000000 .rodata
008155bc l    d  .rwdata	00000000 .rwdata
008234b4 l    d  .bss	00000000 .bss
00000000 l    d  .comment	00000000 .comment
00000000 l    d  .debug_aranges	00000000 .debug_aranges
00000000 l    d  .debug_pubnames	00000000 .debug_pubnames
00000000 l    d  .debug_info	00000000 .debug_info
00000000 l    d  .debug_abbrev	00000000 .debug_abbrev
00000000 l    d  .debug_line	00000000 .debug_line
00000000 l    d  .debug_frame	00000000 .debug_frame
00000000 l    d  .debug_str	00000000 .debug_str
00000000 l    d  .debug_loc	00000000 .debug_loc
00000000 l    d  .debug_alt_sim_info	00000000 .debug_alt_sim_info
00000000 l    d  .debug_ranges	00000000 .debug_ranges
008001fc l       .text	00000000 alt_after_alt_main
00000000 l    df *ABS*	00000000 alt_irq_handler.c
00000000 l    df *ABS*	00000000 Env.c
00000000 l    df *ABS*	00000000 Frame.c
00000000 l    df *ABS*	00000000 Game.c
00000000 l    df *ABS*	00000000 GameInfo.c
00000000 l    df *ABS*	00000000 Object.c
00000000 l    df *ABS*	00000000 animation.c
00000000 l    df *ABS*	00000000 hardCode.c
00000000 l    df *ABS*	00000000 w_sqrt.c
00000000 l    df *ABS*	00000000 e_sqrt.c
00000000 l    df *ABS*	00000000 s_isnand.c
00000000 l    df *ABS*	00000000 s_lib_ver.c
00000000 l    df *ABS*	00000000 s_matherr.c
00000000 l    df *ABS*	00000000 fp-bit.c
00000000 l    df *ABS*	00000000 fp-bit.c
00000000 l    df *ABS*	00000000 fp-bit.c
00000000 l    df *ABS*	00000000 dp-bit.c
008025a4 l     F .text	00000410 _fpadd_parts
00000000 l    df *ABS*	00000000 dp-bit.c
00000000 l    df *ABS*	00000000 dp-bit.c
00000000 l    df *ABS*	00000000 dp-bit.c
00000000 l    df *ABS*	00000000 dp-bit.c
00000000 l    df *ABS*	00000000 dp-bit.c
00000000 l    df *ABS*	00000000 dp-bit.c
00000000 l    df *ABS*	00000000 dp-bit.c
00000000 l    df *ABS*	00000000 dp-bit.c
00000000 l    df *ABS*	00000000 lib2-divmod.c
008033c8 l     F .text	0000007c udivmodsi4
00000000 l    df *ABS*	00000000 libgcc2.c
00000000 l    df *ABS*	00000000 libgcc2.c
00000000 l    df *ABS*	00000000 fp-bit.c
00000000 l    df *ABS*	00000000 fp-bit.c
00000000 l    df *ABS*	00000000 fp-bit.c
00000000 l    df *ABS*	00000000 fp-bit.c
00000000 l    df *ABS*	00000000 dp-bit.c
00000000 l    df *ABS*	00000000 dp-bit.c
00000000 l    df *ABS*	00000000 dp-bit.c
00000000 l    df *ABS*	00000000 libgcc2.c
00000000 l    df *ABS*	00000000 errno.c
00000000 l    df *ABS*	00000000 impure.c
0081aa0c l     O .rwdata	00000400 impure_data
00000000 l    df *ABS*	00000000 malloc.c
00000000 l    df *ABS*	00000000 mallocr.c
00000000 l    df *ABS*	00000000 puts.c
00000000 l    df *ABS*	00000000 rand.c
00000000 l    df *ABS*	00000000 sbrkr.c
00000000 l    df *ABS*	00000000 sprintf.c
00000000 l    df *ABS*	00000000 strcmp.c
00000000 l    df *ABS*	00000000 strcpy.c
00000000 l    df *ABS*	00000000 strlen.c
00000000 l    df *ABS*	00000000 strncat.c
00000000 l    df *ABS*	00000000 strsep.c
00000000 l    df *ABS*	00000000 strtok_r.c
00000000 l    df *ABS*	00000000 vfprintf.c
00804b68 l     F .text	00000058 __sprint_r
0081539a l     O .rodata	00000010 blanks.3452
0081538a l     O .rodata	00000010 zeroes.3453
00000000 l    df *ABS*	00000000 wsetup.c
00000000 l    df *ABS*	00000000 dtoa.c
00806bcc l     F .text	00000218 quorem
00000000 l    df *ABS*	00000000 fflush.c
00000000 l    df *ABS*	00000000 findfp.c
008085c8 l     F .text	00000058 std
008086d4 l     F .text	00000008 __fp_lock
008086dc l     F .text	00000008 __fp_unlock
00000000 l    df *ABS*	00000000 mallocr.c
00000000 l    df *ABS*	00000000 fvwrite.c
00000000 l    df *ABS*	00000000 fwalk.c
00000000 l    df *ABS*	00000000 int_errno.c
00000000 l    df *ABS*	00000000 locale.c
0081c50c l     O .rwdata	00000004 charset
008153cc l     O .rodata	00000030 lconv
00000000 l    df *ABS*	00000000 makebuf.c
00000000 l    df *ABS*	00000000 memchr.c
00000000 l    df *ABS*	00000000 memcpy.c
00000000 l    df *ABS*	00000000 memmove.c
00000000 l    df *ABS*	00000000 memset.c
00000000 l    df *ABS*	00000000 mprec.c
00815514 l     O .rodata	0000000c p05.2458
00000000 l    df *ABS*	00000000 mallocr.c
00000000 l    df *ABS*	00000000 s_isinfd.c
00000000 l    df *ABS*	00000000 stdio.c
00000000 l    df *ABS*	00000000 writer.c
00000000 l    df *ABS*	00000000 mallocr.c
00000000 l    df *ABS*	00000000 closer.c
00000000 l    df *ABS*	00000000 fclose.c
00000000 l    df *ABS*	00000000 fstatr.c
00000000 l    df *ABS*	00000000 isattyr.c
00000000 l    df *ABS*	00000000 lseekr.c
00000000 l    df *ABS*	00000000 readr.c
00000000 l    df *ABS*	00000000 libgcc2.c
00000000 l    df *ABS*	00000000 libgcc2.c
00000000 l    df *ABS*	00000000 dp-bit.c
00000000 l    df *ABS*	00000000 dp-bit.c
00000000 l    df *ABS*	00000000 dp-bit.c
00000000 l    df *ABS*	00000000 dp-bit.c
00000000 l    df *ABS*	00000000 dp-bit.c
00000000 l    df *ABS*	00000000 alt_alarm_start.c
00000000 l    df *ABS*	00000000 alt_close.c
0080c5d0 l     F .text	00000060 alt_get_errno
00000000 l    df *ABS*	00000000 alt_dev.c
0080c630 l     F .text	0000002c alt_dev_null_write
00000000 l    df *ABS*	00000000 alt_errno.c
00000000 l    df *ABS*	00000000 alt_fstat.c
0080c730 l     F .text	00000060 alt_get_errno
00000000 l    df *ABS*	00000000 alt_isatty.c
0080c850 l     F .text	00000060 alt_get_errno
00000000 l    df *ABS*	00000000 alt_load.c
0080c930 l     F .text	0000006c alt_load_section
00000000 l    df *ABS*	00000000 alt_lseek.c
0080ca8c l     F .text	00000060 alt_get_errno
00000000 l    df *ABS*	00000000 alt_main.c
00000000 l    df *ABS*	00000000 alt_malloc_lock.c
00000000 l    df *ABS*	00000000 alt_read.c
0080ccb8 l     F .text	00000060 alt_get_errno
00000000 l    df *ABS*	00000000 alt_release_fd.c
00000000 l    df *ABS*	00000000 alt_sbrk.c
0081c528 l     O .rwdata	00000004 heap_end
00000000 l    df *ABS*	00000000 alt_tick.c
00000000 l    df *ABS*	00000000 alt_usleep.c
00000000 l    df *ABS*	00000000 alt_write.c
0080d128 l     F .text	00000060 alt_get_errno
00000000 l    df *ABS*	00000000 alt_sys_init.c
0081b3c8 l     O .rwdata	00001060 jtag_uart
0081c428 l     O .rwdata	00000048 char_drawer
0081c470 l     O .rwdata	00000054 pixel_buffer_dma_0
0081c4c4 l     O .rwdata	0000002c SD_Card
0080d500 l     F .text	00000038 alt_dev_reg
00000000 l    df *ABS*	00000000 altera_avalon_jtag_uart_fd.c
00000000 l    df *ABS*	00000000 altera_avalon_jtag_uart_init.c
0080d740 l     F .text	00000228 altera_avalon_jtag_uart_irq
0080d968 l     F .text	000000b0 altera_avalon_jtag_uart_timeout
00000000 l    df *ABS*	00000000 altera_avalon_jtag_uart_ioctl.c
00000000 l    df *ABS*	00000000 altera_avalon_jtag_uart_read.c
00000000 l    df *ABS*	00000000 altera_avalon_jtag_uart_write.c
00000000 l    df *ABS*	00000000 altera_avalon_timer_sc.c
0080dfe4 l     F .text	00000070 alt_avalon_timer_sc_irq
00000000 l    df *ABS*	00000000 altera_avalon_timer_vars.c
00000000 l    df *ABS*	00000000 altera_up_avalon_video_character_buffer_with_dma.c
00000000 l    df *ABS*	00000000 altera_up_avalon_video_pixel_buffer_dma.c
00000000 l    df *ABS*	00000000 altera_up_sd_card_avalon_interface.c
00000000 l    df *ABS*	00000000 alt_busy_sleep.c
00000000 l    df *ABS*	00000000 alt_dcache_flush_all.c
00000000 l    df *ABS*	00000000 alt_dev_llist_insert.c
00814158 l     F .text	00000060 alt_get_errno
00000000 l    df *ABS*	00000000 alt_do_ctors.c
00000000 l    df *ABS*	00000000 alt_do_dtors.c
00000000 l    df *ABS*	00000000 alt_find_dev.c
00000000 l    df *ABS*	00000000 alt_icache_flush_all.c
00000000 l    df *ABS*	00000000 alt_iic.c
00000000 l    df *ABS*	00000000 alt_iic_isr_register.c
00000000 l    df *ABS*	00000000 alt_io_redirect.c
00814610 l     F .text	000000c4 alt_open_fd
00000000 l    df *ABS*	00000000 alt_irq_vars.c
00000000 l    df *ABS*	00000000 alt_open.c
0081474c l     F .text	000000dc alt_file_locked
008149b0 l     F .text	00000060 alt_get_errno
00000000 l    df *ABS*	00000000 altera_nios2_qsys_irq.c
00000000 l    df *ABS*	00000000 alt_find_file.c
00000000 l    df *ABS*	00000000 alt_get_fd.c
00000000 l    df *ABS*	00000000 alt_icache_flush.c
00000000 l    df *ABS*	00000000 atexit.c
00000000 l    df *ABS*	00000000 exit.c
00000000 l    df *ABS*	00000000 memcmp.c
00000000 l    df *ABS*	00000000 __atexit.c
00000000 l    df *ABS*	00000000 __call_atexit.c
00814e8c l     F .text	00000004 register_fini
00000000 l    df *ABS*	00000000 alt_exit.c
00815040 l     F .text	00000040 alt_sim_halt
008005f0 g     F .text	00000268 updateStatusFrame
008234fc g     O .bss	00000004 aux_status_register
00809c44 g     F .text	00000094 _mprec_log10
00809d30 g     F .text	00000088 __any_on
0080b2e0 g     F .text	00000070 _isatty_r
008154ec g     O .rodata	00000028 __mprec_tinytens
0080caec g     F .text	0000006c alt_main
008048fc g     F .text	0000008c strcpy
0080f054 g     F .text	000003d0 alt_up_pixel_buffer_dma_draw_vline
0080091c g     F .text	00000128 my_alarm_callback
008045b4 g     F .text	000000a0 _puts_r
00823abc g     O .bss	00000100 alt_irq
0080b350 g     F .text	00000078 _lseek_r
00802010 g     F .text	00000130 sqrt
0081c538 g       *ABS*	00000000 __flash_rwdata_start
0080bfcc g     F .text	00000088 __eqdf2
0080fd04 g     F .text	000001b0 Check_for_Master_Boot_Record
00823d4c g       *ABS*	00000000 __alt_heap_start
00804b60 g     F .text	00000008 strtok_r
00813bbc g     F .text	000001cc alt_up_sd_card_fclose
0080ae68 g     F .text	00000068 __sseek
00808630 g     F .text	000000a4 __sinit
0080e278 g     F .text	00000114 alt_up_char_buffer_string
00809308 g     F .text	00000084 _setlocale_r
00808730 g     F .text	00000068 __sfmoreglue
00800858 g     F .text	00000020 updateControlFrame
0080cb78 g     F .text	00000020 __malloc_unlock
00823520 g     O .bss	00000004 current_sector_modified
0080e1a8 g     F .text	000000d0 alt_up_char_buffer_draw
00813e84 g     F .text	00000090 Read_Sector_Data_Attempt_CRC
008234f0 g     O .bss	00000004 altera_avalon_timer_ts_freq
00801c54 g     F .text	00000244 backgroundAnimation
008096c0 g     F .text	000000e0 memmove
00808720 g     F .text	00000010 _cleanup
00809db8 g     F .text	000000bc _Balloc
00800ad4 g     F .text	00000094 loadSDCard
00804abc g     F .text	000000a4 __strtok_r
00812780 g     F .text	000000c8 alt_up_sd_card_is_Present
00801ab8 g     F .text	000000b8 cleanDrawing
0080fa1c g     F .text	00000050 Save_Modified_Sector
0080e428 g     F .text	000001a0 alt_up_pixel_buffer_dma_draw
0080c0dc g     F .text	00000088 __gtdf2
00803e3c g     F .text	00000010 __errno
0080e3e8 g     F .text	00000040 alt_up_pixel_buffer_dma_open_dev
00815a6c g     O .rwdata	00000190 explode02
00800000 g     F .entry	0000001c __reset
00823518 g     O .bss	00000004 fat_partition_size_in_512_byte_sectors
00800020 g       *ABS*	00000000 __flash_exceptions_start
0080b26c g     F .text	00000074 _fstat_r
008234c8 g     O .bss	00000004 errno
0080331c g     F .text	00000038 __make_dp
0081c4f0 g     O .rwdata	00000004 star
00800200 g     F .text	0000006c initEnv
008014b8 g     F .text	0000004c initGameInfo
00801528 g     F .text	000000fc initObject
0081623c g     O .rwdata	00000190 explode14
008038fc g     F .text	0000002c __make_fp
008234b4 g     O .bss	00000004 char_buffer
008234dc g     O .bss	00000004 alt_argv
008244f0 g       *ABS*	00000000 _gp
0080cfd8 g     F .text	00000030 usleep
00812d40 g     F .text	000003a8 alt_up_sd_card_fopen
008128bc g     F .text	000000d4 alt_up_sd_card_find_first
0082350c g     O .bss	00000004 command_argument_register
0080e5c8 g     F .text	00000058 alt_up_pixel_buffer_dma_change_back_buffer_address
0081b248 g     O .rwdata	00000180 alt_fd_list
00811fb0 g     F .text	0000012c find_first_empty_record_in_root_directory
00814280 g     F .text	00000094 alt_find_dev
00809620 g     F .text	000000a0 memcpy
0080e38c g     F .text	0000005c alt_up_char_buffer_clear
00808714 g     F .text	0000000c _cleanup_r
0080314c g     F .text	000000f8 __floatsidf
008146d4 g     F .text	00000078 alt_io_redirect
008030c4 g     F .text	00000088 __ltdf2
00815110 g       *ABS*	00000000 __DTOR_END__
00804654 g     F .text	00000014 puts
00811bc0 g     F .text	000001a4 find_first_empty_cluster
00809b94 g     F .text	000000b0 __ratio
008126bc g     F .text	000000c4 alt_up_sd_card_open_dev
0080e678 g     F .text	00000034 alt_up_pixel_buffer_dma_check_swap_buffers_status
0080db80 g     F .text	00000224 altera_avalon_jtag_uart_read
00803e60 g     F .text	00000014 malloc
00803504 g     F .text	00000008 __udivsi3
0080c790 g     F .text	000000c0 isatty
00800598 g     F .text	00000058 updateScoreFrame
008153fc g     O .rodata	000000c8 __mprec_tens
0080ed04 g     F .text	00000350 alt_up_pixel_buffer_dma_draw_hline
008092e4 g     F .text	00000008 __locale_charset
00802440 g     F .text	00000078 __lesf2
00800ddc g     F .text	00000154 checkCollision
00814c08 g     F .text	00000090 alt_icache_flush
008234bc g     O .bss	00000004 __malloc_top_pad
00816a0c g     O .rwdata	00004000 earth
0081c508 g     O .rwdata	00000004 __mb_cur_max
008092ec g     F .text	0000000c _localeconv_r
0080a4b0 g     F .text	0000003c __i2b
00808cc8 g     F .text	0000049c __sfvwrite_r
00810e9c g     F .text	000000c0 get_dir_divider_location
008046fc g     F .text	00000070 _sbrk_r
0080f4e8 g     F .text	000000d0 helper_plot_pixel
00810b3c g     F .text	000000d0 filename_to_upper_case
008130e8 g     F .text	00000090 alt_up_sd_card_set_attributes
0080feb4 g     F .text	00000284 Read_File_Record_At_Offset
0080b3c8 g     F .text	00000078 _read_r
0081b214 g     O .rwdata	0000000c __lc_ctype
0081c520 g     O .rwdata	00000004 alt_max_fd
00803c3c g     F .text	00000138 __unpack_d
0081175c g     F .text	00000464 find_file_in_directory
0080b148 g     F .text	00000110 _fclose_r
00808594 g     F .text	00000034 fflush
008234c0 g     O .bss	00000004 __malloc_max_sbrked_mem
00802550 g     F .text	00000054 __extendsfdf2
00800f30 g     F .text	0000004c displayString
00812848 g     F .text	00000074 alt_up_sd_card_is_FAT16
00802a34 g     F .text	00000074 __adddf3
00809a74 g     F .text	00000120 __b2d
0080e6ac g     F .text	00000164 alt_up_pixel_buffer_dma_clear_screen
0080ba1c g     F .text	000005b0 __umoddi3
0080c99c g     F .text	000000f0 lseek
0081c4f4 g     O .rwdata	00000004 __fdlib_version
0081c4fc g     O .rwdata	00000004 _global_impure_ptr
00811248 g     F .text	00000514 get_home_directory_cluster_for_file
0080a82c g     F .text	000005f4 _realloc_r
00823d4c g       *ABS*	00000000 __bss_end
00814518 g     F .text	000000f8 alt_iic_isr_register
0080e810 g     F .text	000004f4 alt_up_pixel_buffer_dma_draw_box
0080cecc g     F .text	0000010c alt_tick
0080b440 g     F .text	000005dc __udivdi3
008154c4 g     O .rodata	00000028 __mprec_bigtens
0080a70c g     F .text	00000120 __s2b
0080c1ec g     F .text	00000194 __floatunsidf
00809994 g     F .text	00000060 __mcmp
00800878 g     F .text	000000a4 distance
00823524 g     O .bss	00000004 current_sector_index
008086fc g     F .text	00000018 __fp_lock_all
008144d0 g     F .text	00000048 alt_ic_irq_enabled
008016d0 g     F .text	00000048 setStats
0080ce34 g     F .text	00000098 alt_alarm_stop
0080fc20 g     F .text	000000e4 mark_cluster
00823528 g     O .bss	00000004 alt_irq_active
008000ec g     F .exceptions	000000c8 alt_irq_handler
0081b220 g     O .rwdata	00000028 alt_dev_null
0081574c g     O .rwdata	00000190 explode04
008120dc g     F .text	000001b8 convert_filename_to_name_extension
0080378c g     F .text	000000c8 __unpack_f
00814060 g     F .text	00000044 alt_dcache_flush_all
00809860 g     F .text	00000070 __hi0bits
008234f8 g     O .bss	00000004 is_sd_card_formated_as_FAT16
0080f424 g     F .text	000000c4 alt_up_pixel_buffer_dma_draw_rectangle
00803244 g     F .text	000000d8 __fixdfsi
00811d64 g     F .text	0000024c find_first_empty_record_in_a_subdirectory
0081c538 g       *ABS*	00000000 __ram_rwdata_end
0081c518 g     O .rwdata	00000008 alt_dev_list
0080d008 g     F .text	00000120 write
00815d8c g     O .rwdata	00000190 explode11
0082351c g     O .bss	00000004 device_pointer
0080f5b8 g     F .text	0000039c alt_up_pixel_buffer_dma_draw_line
008155bc g       *ABS*	00000000 __ram_rodata_end
0080c65c g     F .text	000000d4 fstat
0080a5ec g     F .text	00000120 __pow5mult
008234cc g     O .bss	00000004 __nlocale_changed
0080350c g     F .text	00000008 __umodsi3
008160ac g     O .rwdata	00000190 explode13
008163cc g     O .rwdata	00000190 pacman01
0081655c g     O .rwdata	00000190 pacman02
00823d4c g       *ABS*	00000000 end
0080362c g     F .text	00000160 __pack_f
00801824 g     F .text	000000a8 initAnimation
0080e0e4 g     F .text	00000084 alt_up_char_buffer_init
0080d680 g     F .text	000000c0 altera_avalon_jtag_uart_init
0081510c g       *ABS*	00000000 __CTOR_LIST__
01000000 g       *ABS*	00000000 __alt_stack_pointer
0080e054 g     F .text	00000090 alt_avalon_timer_sc_init
008035ac g     F .text	00000080 __clzsi2
0080dda4 g     F .text	00000240 altera_avalon_jtag_uart_write
00808620 g     F .text	00000004 __sfp_lock_acquire
0080953c g     F .text	000000e4 memchr
00804bc0 g     F .text	00001eac ___vfprintf_internal_r
008047e0 g     F .text	00000060 _sprintf_r
00801624 g     F .text	000000ac killObject
008089b4 g     F .text	00000314 _free_r
00814e90 g     F .text	000001b0 __call_exitprocs
008234d0 g     O .bss	00000004 __mlocale_changed
0081c504 g     O .rwdata	00000004 __malloc_sbrk_base
008001b4 g     F .text	0000004c _start
008234e4 g     O .bss	00000004 _alt_tick_rate
00804684 g     F .text	00000078 rand
0080a17c g     F .text	0000014c __lshift
008234e8 g     O .bss	00000004 _alt_nticks
0080cb98 g     F .text	00000120 read
0080d1bc g     F .text	00000344 alt_sys_init
008024b8 g     F .text	00000098 __floatsisf
00814d58 g     F .text	00000134 __register_exitproc
0080a2c8 g     F .text	000001e8 __multiply
0080da18 g     F .text	00000074 altera_avalon_jtag_uart_close
008155bc g       *ABS*	00000000 __ram_rwdata_start
00815110 g       *ABS*	00000000 __ram_rodata_start
0082352c g     O .bss	00000028 __malloc_current_mallinfo
00809e74 g     F .text	0000017c __d2b
008234f4 g     O .bss	00000004 initialized
0080d538 g     F .text	00000058 altera_avalon_jtag_uart_read_fd
00814b50 g     F .text	000000b8 alt_get_fd
00823554 g     O .bss	00000014 search_data
00813f14 g     F .text	0000014c alt_busy_sleep
00803d74 g     F .text	000000c8 __fpcmp_parts_d
0080b0d8 g     F .text	00000070 _close_r
00815bfc g     O .rwdata	00000190 explode01
00800468 g     F .text	00000130 drawFrame
00801b70 g     F .text	000000e4 animated
00814ce4 g     F .text	00000074 memcmp
0080d5e8 g     F .text	00000048 altera_avalon_jtag_uart_close_fd
00823d4c g       *ABS*	00000000 __alt_stack_base
0080d630 g     F .text	00000050 altera_avalon_jtag_uart_ioctl_fd
00806a90 g     F .text	0000013c __swsetup_r
00802e6c g     F .text	00000258 __divdf3
00808798 g     F .text	000000f0 __sfp
00823568 g     O .bss	00000054 boot_sector_data
008049fc g     F .text	000000b0 strncat
00809cd8 g     F .text	00000058 __copybits
0081ae0c g     O .rwdata	00000408 __malloc_av_
0080862c g     F .text	00000004 __sinit_lock_release
00802aa8 g     F .text	000003c4 __muldf3
0080af4c g     F .text	00000060 __sread
00814a30 g     F .text	00000120 alt_find_file
008140a4 g     F .text	000000b4 alt_dev_llist_insert
0080cb58 g     F .text	00000020 __malloc_lock
0080cd78 g     F .text	000000bc sbrk
00800d98 g     F .text	00000044 backgroundImage
00808398 g     F .text	000001fc _fflush_r
0080b024 g     F .text	000000b4 _calloc_r
008234b4 g       *ABS*	00000000 __bss_start
008097a0 g     F .text	00000098 memset
00800f7c g     F .text	0000053c main
008158dc g     O .rwdata	00000190 explode03
008234e0 g     O .bss	00000004 alt_envp
008234c4 g     O .bss	00000004 __malloc_max_total_mem
0080e620 g     F .text	00000058 alt_up_pixel_buffer_dma_swap_buffers
0080e168 g     F .text	00000040 alt_up_char_buffer_open_dev
0080d590 g     F .text	00000058 altera_avalon_jtag_uart_write_fd
00804668 g     F .text	0000001c srand
00801774 g     F .text	000000b0 setXY
00813178 g     F .text	0000008c alt_up_sd_card_get_attributes
00801718 g     F .text	0000005c addStats
0080f954 g     F .text	000000c8 Write_Sector_Data
00813598 g     F .text	00000624 alt_up_sd_card_write
0080ae60 g     F .text	00000008 __sclose
00802438 g     F .text	00000008 matherr
01000000 g       *ABS*	00000000 __alt_heap_limit
0080b258 g     F .text	00000014 fclose
00803354 g     F .text	00000074 __truncdfsf2
00823bbc g     O .bss	00000190 _atexit0
00806de4 g     F .text	000015b4 _dtoa_r
00803e74 g     F .text	00000740 _malloc_r
0081c524 g     O .rwdata	00000004 alt_errno
00801e98 g     F .text	00000178 getColor
0080922c g     F .text	000000b8 _fwalk
00803444 g     F .text	00000060 __divsi3
00815210 g     O .rodata	00000014 __thenan_df
00808888 g     F .text	0000012c _malloc_trim_r
00815110 g       *ABS*	00000000 __CTOR_END__
00823500 g     O .bss	00000004 status_register
00804840 g     F .text	000000bc strcmp
00823508 g     O .bss	00000004 command_register
00815110 g       *ABS*	00000000 __flash_rodata_start
00815110 g       *ABS*	00000000 __DTOR_LIST__
008018cc g     F .text	00000084 killAnimation
008002c8 g     F .text	000000e8 removeFromEnv
0080c054 g     F .text	00000088 __nedf2
0080d188 g     F .text	00000034 alt_irq_init
00800a44 g     F .text	00000090 initVGA
0080cd18 g     F .text	00000060 alt_release_fd
0080fb68 g     F .text	000000b8 get_cluster_flag
0080476c g     F .text	00000074 sprintf
00815224 g     O .rodata	00000100 __clz_tab
00810138 g     F .text	000002b8 Write_File_Record_At_Offset
008234d4 g     O .bss	00000004 _PathLocale
008234b8 g     O .bss	00000004 pixel_buffer
00814c98 g     F .text	00000014 atexit
0080afac g     F .text	00000078 _write_r
0080938c g     F .text	0000001c setlocale
008103f0 g     F .text	00000648 Check_for_DOS_FAT
00812294 g     F .text	000002d4 create_file
0081c4f8 g     O .rwdata	00000004 _impure_ptr
00823504 g     O .bss	00000004 CSD_register_w0
008234d8 g     O .bss	00000004 alt_argc
008234ec g     O .bss	00000004 altera_avalon_timer_ts_base
0081421c g     F .text	00000064 _do_dtors
00804aac g     F .text	00000010 strsep
00800020 g       .exceptions	00000000 alt_irq_entry
008099f4 g     F .text	00000080 __ulp
0080ae20 g     F .text	00000040 __isinfd
008086e4 g     F .text	00000018 __fp_unlock_all
00800b68 g     F .text	00000230 loadSDImage
008166ec g     O .rwdata	00000190 pacman03
0081c510 g     O .rwdata	00000008 alt_fs_list
00810c0c g     F .text	00000290 check_file_name_for_FAT16_compliance
00823510 g     O .bss	00000004 buffer_memory
00815f1c g     O .rwdata	00000190 explode12
00801504 g     F .text	00000024 loadGameInfo
00800020 g       *ABS*	00000000 __ram_exceptions_start
008092f8 g     F .text	00000010 localeconv
00802140 g     F .text	000002c8 __ieee754_sqrt
00814344 g     F .text	00000050 alt_ic_isr_register
00801950 g     F .text	00000080 addImage
00823514 g     O .bss	00000004 fat_partition_offset_in_512_byte_sectors
0081c538 g       *ABS*	00000000 _edata
00823d4c g       *ABS*	00000000 _end
008235bc g     O .bss	00000500 active_files
008001b4 g       *ABS*	00000000 __ram_exceptions_end
00812568 g     F .text	00000154 copy_file_record_name_to_string
0080da8c g     F .text	000000f4 altera_avalon_jtag_uart_ioctl
008155bc g     O .rwdata	00000190 explode05
00810a38 g     F .text	00000104 Look_for_FAT16
00814430 g     F .text	000000a0 alt_ic_irq_disable
0080aed0 g     F .text	0000007c __swrite
0081c500 g     O .rwdata	00000004 __malloc_trim_threshold
00814a10 g     F .text	00000020 altera_nios2_qsys_irq_init
00814cac g     F .text	00000038 exit
00812990 g     F .text	000003b0 alt_up_sd_card_find_next
00809164 g     F .text	000000c8 _fwalk_reent
00809ff0 g     F .text	0000018c __mdiff
008034a4 g     F .text	00000060 __modsi3
0080fa6c g     F .text	000000fc Read_Sector_Data
0081687c g     O .rwdata	00000190 pacman04
01000000 g       *ABS*	00000000 __alt_data_end
00800020 g     F .exceptions	00000000 alt_exception
00808624 g     F .text	00000004 __sfp_lock_release
00800000 g       *ABS*	00000000 __alt_mem_sdram
008019d0 g     F .text	000000e8 draw
0080026c g     F .text	0000005c addToEnv
00803854 g     F .text	000000a8 __fpcmp_parts_f
00815080 g     F .text	00000020 _exit
00802408 g     F .text	00000030 __isnand
0080c380 g     F .text	00000154 alt_alarm_start
00803514 g     F .text	00000098 __muldi3
00813d88 g     F .text	000000fc Read_Sector_Data_CRC
00813204 g     F .text	00000394 alt_up_sd_card_read
008093a8 g     F .text	00000194 __smakebuf_r
00804988 g     F .text	00000074 strlen
00814828 g     F .text	00000188 open
0080c164 g     F .text	00000088 __gedf2
00814314 g     F .text	00000030 alt_icache_flush_all
0081c534 g     O .rwdata	00000004 alt_priority_mask
00814394 g     F .text	0000009c alt_ic_irq_enable
00806a6c g     F .text	00000024 __vfprintf_internal
008029b4 g     F .text	00000080 __subdf3
008003b0 g     F .text	000000b8 initFrame
008098d0 g     F .text	000000c4 __lo0bits
0081c52c g     O .rwdata	00000008 alt_alarm_list
008141b8 g     F .text	00000064 _do_ctors
0080c4d4 g     F .text	000000fc close
0080c8b0 g     F .text	00000080 alt_load
00803928 g     F .text	00000314 __pack_d
00810f5c g     F .text	000002ec match_file_record_to_name_ext
00803e4c g     F .text	00000014 free
00808628 g     F .text	00000004 __sinit_lock_acquire
0080a4ec g     F .text	00000100 __multadd
00809838 g     F .text	00000028 _Bfree



Disassembly of section .entry:

00800000 <__reset>:
#if NIOS2_ICACHE_SIZE > 0 && defined(ALT_ALLOW_CODE_AT_RESET) && !defined(ALT_SIM_OPTIMIZE)
    /* Assume the instruction cache size is always a power of two. */
#if NIOS2_ICACHE_SIZE > 0x8000
    movhi r2, %hi(NIOS2_ICACHE_SIZE)
#else
    movui r2, NIOS2_ICACHE_SIZE
  800000:	00840014 	movui	r2,4096
#endif

0:
    initi r2
  800004:	1001483a 	initi	r2
    addi r2, r2, -NIOS2_ICACHE_LINE_SIZE
  800008:	10bff804 	addi	r2,r2,-32
    bgt r2, zero, 0b
  80000c:	00bffd16 	blt	zero,r2,800004 <__reset+0x4>
 * Jump to the _start entry point in the .text section if reset code
 * is allowed or if optimizing for RTL simulation.
 */
#if defined(ALT_ALLOW_CODE_AT_RESET) || defined(ALT_SIM_OPTIMIZE)
    /* Jump to the _start entry point in the .text section. */
    movhi r1, %hi(_start)
  800010:	00402034 	movhi	at,128
    ori r1, r1, %lo(_start)
  800014:	08406d14 	ori	at,at,436
    jmp r1
  800018:	0800683a 	jmp	at
  80001c:	00000000 	call	0 <__reset-0x800000>

Disassembly of section .exceptions:

00800020 <alt_exception>:
         * Process an exception.  For all exceptions we must preserve all
         * caller saved registers on the stack (See the Nios2 ABI
         * documentation for details).
         */

        addi  sp, sp, -76
  800020:	deffed04 	addi	sp,sp,-76

#endif

#endif

        stw   ra,  0(sp)
  800024:	dfc00015 	stw	ra,0(sp)
        /*
         * Leave a gap in the stack frame at 4(sp) for the muldiv handler to
         * store zero into.
         */

        stw   r1,   8(sp)
  800028:	d8400215 	stw	at,8(sp)
        stw   r2,  12(sp)
  80002c:	d8800315 	stw	r2,12(sp)
        stw   r3,  16(sp)
  800030:	d8c00415 	stw	r3,16(sp)
        stw   r4,  20(sp)
  800034:	d9000515 	stw	r4,20(sp)
        stw   r5,  24(sp)
  800038:	d9400615 	stw	r5,24(sp)
        stw   r6,  28(sp)
  80003c:	d9800715 	stw	r6,28(sp)
        stw   r7,  32(sp)
  800040:	d9c00815 	stw	r7,32(sp)

        rdctl r5, estatus
  800044:	000b307a 	rdctl	r5,estatus

        stw   r8,  36(sp)
  800048:	da000915 	stw	r8,36(sp)
        stw   r9,  40(sp)
  80004c:	da400a15 	stw	r9,40(sp)
        stw   r10, 44(sp)
  800050:	da800b15 	stw	r10,44(sp)
        stw   r11, 48(sp)
  800054:	dac00c15 	stw	r11,48(sp)
        stw   r12, 52(sp)
  800058:	db000d15 	stw	r12,52(sp)
        stw   r13, 56(sp)
  80005c:	db400e15 	stw	r13,56(sp)
        stw   r14, 60(sp)
  800060:	db800f15 	stw	r14,60(sp)
        stw   r15, 64(sp)
  800064:	dbc01015 	stw	r15,64(sp)
        /*
         * ea-4 contains the address of the instruction being executed
         * when the exception occured. For interrupt exceptions, we will
         * will be re-issue the isntruction. Store it in 72(sp)
         */
        stw   r5,  68(sp)  /* estatus */
  800068:	d9401115 	stw	r5,68(sp)
        addi  r15, ea, -4  /* instruction that caused exception */
  80006c:	ebffff04 	addi	r15,ea,-4
        stw   r15,  72(sp)
  800070:	dbc01215 	stw	r15,72(sp)
#else
        /*
         * Test to see if the exception was a software exception or caused 
         * by an external interrupt, and vector accordingly.
         */
        rdctl r4, ipending
  800074:	0009313a 	rdctl	r4,ipending
        andi  r2, r5, 1
  800078:	2880004c 	andi	r2,r5,1
        beq   r2, zero, .Lnot_irq
  80007c:	10000326 	beq	r2,zero,80008c <alt_exception+0x6c>
        beq   r4, zero, .Lnot_irq
  800080:	20000226 	beq	r4,zero,80008c <alt_exception+0x6c>
        /*
         * Now that all necessary registers have been preserved, call 
         * alt_irq_handler() to process the interrupts.
         */

        call alt_irq_handler
  800084:	08000ec0 	call	8000ec <alt_irq_handler>

        .section .exceptions.irqreturn, "xa"

        br    .Lexception_exit
  800088:	00000306 	br	800098 <alt_exception+0x78>
         * upon completion, so we write ea (address of instruction *after*
         * the one where the exception occured) into 72(sp). The actual
         * instruction that caused the exception is written in r2, which these
         * handlers will utilize.
         */
        stw   ea,  72(sp)  /* Don't re-issue */
  80008c:	df401215 	stw	ea,72(sp)
        ldw   r2, -4(ea)   /* Instruction that caused exception */
  800090:	e8bfff17 	ldw	r2,-4(ea)
#ifdef NIOS2_HAS_DEBUG_STUB
       /*
        *  Either tell the user now (if there is a debugger attached) or go into
        *  the debug monitor which will loop until a debugger is attached.
        */
        break
  800094:	003da03a 	break	0
        /* 
         * Restore the saved registers, so that all general purpose registers 
         * have been restored to their state at the time the interrupt occured.
         */

        ldw   r5,  68(sp)
  800098:	d9401117 	ldw	r5,68(sp)
        ldw   ea,  72(sp)  /* This becomes the PC once eret is executed */
  80009c:	df401217 	ldw	ea,72(sp)
        ldw   ra,   0(sp)
  8000a0:	dfc00017 	ldw	ra,0(sp)

        wrctl estatus, r5
  8000a4:	2801707a 	wrctl	estatus,r5

        ldw   r1,   8(sp)
  8000a8:	d8400217 	ldw	at,8(sp)
        ldw   r2,  12(sp)
  8000ac:	d8800317 	ldw	r2,12(sp)
        ldw   r3,  16(sp)
  8000b0:	d8c00417 	ldw	r3,16(sp)
        ldw   r4,  20(sp)
  8000b4:	d9000517 	ldw	r4,20(sp)
        ldw   r5,  24(sp)
  8000b8:	d9400617 	ldw	r5,24(sp)
        ldw   r6,  28(sp)
  8000bc:	d9800717 	ldw	r6,28(sp)
        ldw   r7,  32(sp)
  8000c0:	d9c00817 	ldw	r7,32(sp)
#ifdef ALT_STACK_CHECK
        ldw   et, %gprel(alt_exception_old_stack_limit)(gp)
#endif
#endif

        ldw   r8,  36(sp)
  8000c4:	da000917 	ldw	r8,36(sp)
        ldw   r9,  40(sp)
  8000c8:	da400a17 	ldw	r9,40(sp)
        ldw   r10, 44(sp)
  8000cc:	da800b17 	ldw	r10,44(sp)
        ldw   r11, 48(sp)
  8000d0:	dac00c17 	ldw	r11,48(sp)
        ldw   r12, 52(sp)
  8000d4:	db000d17 	ldw	r12,52(sp)
        ldw   r13, 56(sp)
  8000d8:	db400e17 	ldw	r13,56(sp)
        ldw   r14, 60(sp)
  8000dc:	db800f17 	ldw	r14,60(sp)
        ldw   r15, 64(sp)
  8000e0:	dbc01017 	ldw	r15,64(sp)
#endif

        ldw   sp,  76(sp)

#else
        addi  sp, sp, 76
  8000e4:	dec01304 	addi	sp,sp,76

        /*
         * Return to the interrupted instruction.
         */

        eret
  8000e8:	ef80083a 	eret

008000ec <alt_irq_handler>:
 * instruction is present if the macro ALT_CI_INTERRUPT_VECTOR defined.
 */

void alt_irq_handler (void) __attribute__ ((section (".exceptions")));
void alt_irq_handler (void)
{
  8000ec:	defff904 	addi	sp,sp,-28
  8000f0:	dfc00615 	stw	ra,24(sp)
  8000f4:	df000515 	stw	fp,20(sp)
  8000f8:	df000504 	addi	fp,sp,20
#ifndef NIOS2_EIC_PRESENT
static ALT_INLINE alt_u32 ALT_ALWAYS_INLINE alt_irq_pending (void)
{
  alt_u32 active;

  NIOS2_READ_IPENDING (active);
  8000fc:	0005313a 	rdctl	r2,ipending
  800100:	e0bffc15 	stw	r2,-16(fp)

  return active;
  800104:	e0bffc17 	ldw	r2,-16(fp)
   * Consider the case where the high priority interupt is asserted during
   * the interrupt entry sequence for a lower priority interrupt to see why
   * this is the case.
   */

  active = alt_irq_pending ();
  800108:	e0bfff15 	stw	r2,-4(fp)

  do
  {
    i = 0;
  80010c:	e03ffd15 	stw	zero,-12(fp)
    mask = 1;
  800110:	00800044 	movi	r2,1
  800114:	e0bffe15 	stw	r2,-8(fp)
     * called to clear the interrupt condition.
     */

    do
    {
      if (active & mask)
  800118:	e0ffff17 	ldw	r3,-4(fp)
  80011c:	e0bffe17 	ldw	r2,-8(fp)
  800120:	1884703a 	and	r2,r3,r2
  800124:	1005003a 	cmpeq	r2,r2,zero
  800128:	1000161e 	bne	r2,zero,800184 <alt_irq_handler+0x98>
      { 
#ifdef ALT_ENHANCED_INTERRUPT_API_PRESENT
        alt_irq[i].handler(alt_irq[i].context); 
  80012c:	e0bffd17 	ldw	r2,-12(fp)
  800130:	00c020b4 	movhi	r3,130
  800134:	18ceaf04 	addi	r3,r3,15036
  800138:	100490fa 	slli	r2,r2,3
  80013c:	10c5883a 	add	r2,r2,r3
  800140:	11400017 	ldw	r5,0(r2)
  800144:	e0bffd17 	ldw	r2,-12(fp)
  800148:	00c020b4 	movhi	r3,130
  80014c:	18ceaf04 	addi	r3,r3,15036
  800150:	100490fa 	slli	r2,r2,3
  800154:	10c5883a 	add	r2,r2,r3
  800158:	10800104 	addi	r2,r2,4
  80015c:	11000017 	ldw	r4,0(r2)
  800160:	283ee83a 	callr	r5
#ifndef NIOS2_EIC_PRESENT
static ALT_INLINE alt_u32 ALT_ALWAYS_INLINE alt_irq_pending (void)
{
  alt_u32 active;

  NIOS2_READ_IPENDING (active);
  800164:	0005313a 	rdctl	r2,ipending
  800168:	e0bffb15 	stw	r2,-20(fp)

  return active;
  80016c:	e0bffb17 	ldw	r2,-20(fp)
      mask <<= 1;
      i++;

    } while (1);

    active = alt_irq_pending ();
  800170:	e0bfff15 	stw	r2,-4(fp)
    
  } while (active);
  800174:	e0bfff17 	ldw	r2,-4(fp)
  800178:	1004c03a 	cmpne	r2,r2,zero
  80017c:	103fe31e 	bne	r2,zero,80010c <alt_irq_handler+0x20>
  800180:	00000706 	br	8001a0 <alt_irq_handler+0xb4>
#else
        alt_irq[i].handler(alt_irq[i].context, i); 
#endif
        break;
      }
      mask <<= 1;
  800184:	e0bffe17 	ldw	r2,-8(fp)
  800188:	1085883a 	add	r2,r2,r2
  80018c:	e0bffe15 	stw	r2,-8(fp)
      i++;
  800190:	e0bffd17 	ldw	r2,-12(fp)
  800194:	10800044 	addi	r2,r2,1
  800198:	e0bffd15 	stw	r2,-12(fp)

    } while (1);
  80019c:	003fde06 	br	800118 <alt_irq_handler+0x2c>
  /*
   * Notify the operating system that interrupt processing is complete.
   */ 

  ALT_OS_INT_EXIT();
}
  8001a0:	e037883a 	mov	sp,fp
  8001a4:	dfc00117 	ldw	ra,4(sp)
  8001a8:	df000017 	ldw	fp,0(sp)
  8001ac:	dec00204 	addi	sp,sp,8
  8001b0:	f800283a 	ret

Disassembly of section .text:

008001b4 <_start>:

    /* Assume the data cache size is always a power of two. */
#if NIOS2_DCACHE_SIZE > 0x8000
    movhi r2, %hi(NIOS2_DCACHE_SIZE)
#else
    movui r2, NIOS2_DCACHE_SIZE
  8001b4:	00820014 	movui	r2,2048
#endif

0:
    initd 0(r2)
  8001b8:	10000033 	initd	0(r2)
    addi r2, r2, -NIOS2_DCACHE_LINE_SIZE
  8001bc:	10bff804 	addi	r2,r2,-32
    bgt r2, zero, 0b
  8001c0:	00bffd16 	blt	zero,r2,8001b8 <_start+0x4>
#if (NIOS2_NUM_OF_SHADOW_REG_SETS == 0)    
    /*
     * Now that the caches are initialized, set up the stack pointer.
     * The value provided by the linker is assumed to be correctly aligned.
     */
    movhi sp, %hi(__alt_stack_pointer)
  8001c4:	06c04034 	movhi	sp,256
    ori sp, sp, %lo(__alt_stack_pointer)
  8001c8:	dec00014 	ori	sp,sp,0

    /* Set up the global pointer. */
    movhi gp, %hi(_gp)
  8001cc:	068020b4 	movhi	gp,130
    ori gp, gp, %lo(_gp)
  8001d0:	d6913c14 	ori	gp,gp,17648
 */
#ifndef ALT_SIM_OPTIMIZE
    /* Log that the BSS is about to be cleared. */
    ALT_LOG_PUTS(alt_log_msg_bss)

    movhi r2, %hi(__bss_start)
  8001d4:	008020b4 	movhi	r2,130
    ori r2, r2, %lo(__bss_start)
  8001d8:	108d2d14 	ori	r2,r2,13492

    movhi r3, %hi(__bss_end)
  8001dc:	00c020b4 	movhi	r3,130
    ori r3, r3, %lo(__bss_end)
  8001e0:	18cf5314 	ori	r3,r3,15692

    beq r2, r3, 1f
  8001e4:	10c00326 	beq	r2,r3,8001f4 <_start+0x40>

0:
    stw zero, (r2)
  8001e8:	10000015 	stw	zero,0(r2)
    addi r2, r2, 4
  8001ec:	10800104 	addi	r2,r2,4
    bltu r2, r3, 0b
  8001f0:	10fffd36 	bltu	r2,r3,8001e8 <_start+0x34>
     * section aren't defined until alt_load() has been called).
     */
    mov   et, zero
#endif

    call alt_load
  8001f4:	080c8b00 	call	80c8b0 <alt_load>

    /* Log that alt_main is about to be called. */
    ALT_LOG_PUTS(alt_log_msg_alt_main)

    /* Call the C entry point. It should never return. */
    call alt_main
  8001f8:	080caec0 	call	80caec <alt_main>

008001fc <alt_after_alt_main>:

    /* Wait in infinite loop in case alt_main does return. */
alt_after_alt_main:
    br alt_after_alt_main
  8001fc:	003fff06 	br	8001fc <alt_after_alt_main>

00800200 <initEnv>:
#include "Env.h"
/*
 The attribute o stores all objects that exist in the environment.
 The initial size is 30, which may require more space later.
 */
struct Env* initEnv() {
  800200:	defffd04 	addi	sp,sp,-12
  800204:	dfc00215 	stw	ra,8(sp)
  800208:	df000115 	stw	fp,4(sp)
  80020c:	df000104 	addi	fp,sp,4
	struct Env* env = (struct Env*)malloc(sizeof(struct Env));
  800210:	01000404 	movi	r4,16
  800214:	0803e600 	call	803e60 <malloc>
  800218:	e0bfff15 	stw	r2,-4(fp)
	env->o = (struct Object**)malloc(30*sizeof(struct Object*));
  80021c:	01001e04 	movi	r4,120
  800220:	0803e600 	call	803e60 <malloc>
  800224:	1007883a 	mov	r3,r2
  800228:	e0bfff17 	ldw	r2,-4(fp)
  80022c:	10c00015 	stw	r3,0(r2)
	env->size = 0;
  800230:	e0bfff17 	ldw	r2,-4(fp)
  800234:	10000115 	stw	zero,4(r2)
	env->coord[0] = env->coord[1] = 150;
  800238:	e0ffff17 	ldw	r3,-4(fp)
  80023c:	00802584 	movi	r2,150
  800240:	18800315 	stw	r2,12(r3)
  800244:	e0bfff17 	ldw	r2,-4(fp)
  800248:	10c00317 	ldw	r3,12(r2)
  80024c:	e0bfff17 	ldw	r2,-4(fp)
  800250:	10c00215 	stw	r3,8(r2)
	return env;
  800254:	e0bfff17 	ldw	r2,-4(fp)
}
  800258:	e037883a 	mov	sp,fp
  80025c:	dfc00117 	ldw	ra,4(sp)
  800260:	df000017 	ldw	fp,0(sp)
  800264:	dec00204 	addi	sp,sp,8
  800268:	f800283a 	ret

0080026c <addToEnv>:

void addToEnv(struct Env* e, struct Object* obj) {
  80026c:	defffd04 	addi	sp,sp,-12
  800270:	df000215 	stw	fp,8(sp)
  800274:	df000204 	addi	fp,sp,8
  800278:	e13ffe15 	stw	r4,-8(fp)
  80027c:	e17fff15 	stw	r5,-4(fp)
	e->o[e->size] = obj;
  800280:	e0bffe17 	ldw	r2,-8(fp)
  800284:	10c00017 	ldw	r3,0(r2)
  800288:	e0bffe17 	ldw	r2,-8(fp)
  80028c:	10800117 	ldw	r2,4(r2)
  800290:	1085883a 	add	r2,r2,r2
  800294:	1085883a 	add	r2,r2,r2
  800298:	1887883a 	add	r3,r3,r2
  80029c:	e0bfff17 	ldw	r2,-4(fp)
  8002a0:	18800015 	stw	r2,0(r3)
	e->size++;
  8002a4:	e0bffe17 	ldw	r2,-8(fp)
  8002a8:	10800117 	ldw	r2,4(r2)
  8002ac:	10c00044 	addi	r3,r2,1
  8002b0:	e0bffe17 	ldw	r2,-8(fp)
  8002b4:	10c00115 	stw	r3,4(r2)
}
  8002b8:	e037883a 	mov	sp,fp
  8002bc:	df000017 	ldw	fp,0(sp)
  8002c0:	dec00104 	addi	sp,sp,4
  8002c4:	f800283a 	ret

008002c8 <removeFromEnv>:

int removeFromEnv(struct Env* env, struct Object* obj) {
  8002c8:	defffa04 	addi	sp,sp,-24
  8002cc:	dfc00515 	stw	ra,20(sp)
  8002d0:	df000415 	stw	fp,16(sp)
  8002d4:	df000404 	addi	fp,sp,16
  8002d8:	e13ffe15 	stw	r4,-8(fp)
  8002dc:	e17fff15 	stw	r5,-4(fp)
	int i, found = 0;
  8002e0:	e03ffc15 	stw	zero,-16(fp)
	for(i = 0; i < env->size; i++) {
  8002e4:	e03ffd15 	stw	zero,-12(fp)
  8002e8:	00002106 	br	800370 <removeFromEnv+0xa8>

		if(found == 1) {
  8002ec:	e0bffc17 	ldw	r2,-16(fp)
  8002f0:	10800058 	cmpnei	r2,r2,1
  8002f4:	1000101e 	bne	r2,zero,800338 <removeFromEnv+0x70>
			env->o[i-1] = env->o[i];
  8002f8:	e0bffe17 	ldw	r2,-8(fp)
  8002fc:	10c00017 	ldw	r3,0(r2)
  800300:	e0bffd17 	ldw	r2,-12(fp)
  800304:	1085883a 	add	r2,r2,r2
  800308:	1085883a 	add	r2,r2,r2
  80030c:	1885883a 	add	r2,r3,r2
  800310:	10ffff04 	addi	r3,r2,-4
  800314:	e0bffe17 	ldw	r2,-8(fp)
  800318:	11000017 	ldw	r4,0(r2)
  80031c:	e0bffd17 	ldw	r2,-12(fp)
  800320:	1085883a 	add	r2,r2,r2
  800324:	1085883a 	add	r2,r2,r2
  800328:	2085883a 	add	r2,r4,r2
  80032c:	10800017 	ldw	r2,0(r2)
  800330:	18800015 	stw	r2,0(r3)
  800334:	00000b06 	br	800364 <removeFromEnv+0x9c>
		} else if(env->o[i] == obj) {
  800338:	e0bffe17 	ldw	r2,-8(fp)
  80033c:	10c00017 	ldw	r3,0(r2)
  800340:	e0bffd17 	ldw	r2,-12(fp)
  800344:	1085883a 	add	r2,r2,r2
  800348:	1085883a 	add	r2,r2,r2
  80034c:	1885883a 	add	r2,r3,r2
  800350:	10c00017 	ldw	r3,0(r2)
  800354:	e0bfff17 	ldw	r2,-4(fp)
  800358:	1880021e 	bne	r3,r2,800364 <removeFromEnv+0x9c>
			found = 1;
  80035c:	00800044 	movi	r2,1
  800360:	e0bffc15 	stw	r2,-16(fp)
	e->size++;
}

int removeFromEnv(struct Env* env, struct Object* obj) {
	int i, found = 0;
	for(i = 0; i < env->size; i++) {
  800364:	e0bffd17 	ldw	r2,-12(fp)
  800368:	10800044 	addi	r2,r2,1
  80036c:	e0bffd15 	stw	r2,-12(fp)
  800370:	e0bffe17 	ldw	r2,-8(fp)
  800374:	10c00117 	ldw	r3,4(r2)
  800378:	e0bffd17 	ldw	r2,-12(fp)
  80037c:	10ffdb16 	blt	r2,r3,8002ec <removeFromEnv+0x24>
		if(found == 1) {
			env->o[i-1] = env->o[i];
		} else if(env->o[i] == obj) {
			found = 1;
		}
	} env->size--;
  800380:	e0bffe17 	ldw	r2,-8(fp)
  800384:	10800117 	ldw	r2,4(r2)
  800388:	10ffffc4 	addi	r3,r2,-1
  80038c:	e0bffe17 	ldw	r2,-8(fp)
  800390:	10c00115 	stw	r3,4(r2)
	killObject(obj);
  800394:	e13fff17 	ldw	r4,-4(fp)
  800398:	08016240 	call	801624 <killObject>
}
  80039c:	e037883a 	mov	sp,fp
  8003a0:	dfc00117 	ldw	ra,4(sp)
  8003a4:	df000017 	ldw	fp,0(sp)
  8003a8:	dec00204 	addi	sp,sp,8
  8003ac:	f800283a 	ret

008003b0 <initFrame>:
 *      Author: Danny
 */

#include "Frame.h"

struct Frame* initFrame(int x1, int y1, int x2, int y2, int type) {
  8003b0:	defff904 	addi	sp,sp,-28
  8003b4:	dfc00615 	stw	ra,24(sp)
  8003b8:	df000515 	stw	fp,20(sp)
  8003bc:	df000504 	addi	fp,sp,20
  8003c0:	e13ffc15 	stw	r4,-16(fp)
  8003c4:	e17ffd15 	stw	r5,-12(fp)
  8003c8:	e1bffe15 	stw	r6,-8(fp)
  8003cc:	e1ffff15 	stw	r7,-4(fp)
	struct Frame* f = (struct Frame*)malloc(sizeof(struct Frame));
  8003d0:	01000504 	movi	r4,20
  8003d4:	0803e600 	call	803e60 <malloc>
  8003d8:	e0bffb15 	stw	r2,-20(fp)
	f->super = initObject(x1, y1, x2-x1, NULL);
  8003dc:	e0fffe17 	ldw	r3,-8(fp)
  8003e0:	e0bffc17 	ldw	r2,-16(fp)
  8003e4:	188dc83a 	sub	r6,r3,r2
  8003e8:	e13ffc17 	ldw	r4,-16(fp)
  8003ec:	e17ffd17 	ldw	r5,-12(fp)
  8003f0:	000f883a 	mov	r7,zero
  8003f4:	08015280 	call	801528 <initObject>
  8003f8:	1007883a 	mov	r3,r2
  8003fc:	e0bffb17 	ldw	r2,-20(fp)
  800400:	10c00415 	stw	r3,16(r2)
	f->super->class = panel;
  800404:	e0bffb17 	ldw	r2,-20(fp)
  800408:	10c00417 	ldw	r3,16(r2)
  80040c:	008000c4 	movi	r2,3
  800410:	18800c15 	stw	r2,48(r3)
	f->ltx = x1;
  800414:	e0fffb17 	ldw	r3,-20(fp)
  800418:	e0bffc17 	ldw	r2,-16(fp)
  80041c:	18800015 	stw	r2,0(r3)
	f->lty = y1;
  800420:	e0fffb17 	ldw	r3,-20(fp)
  800424:	e0bffd17 	ldw	r2,-12(fp)
  800428:	18800115 	stw	r2,4(r3)
	f->rbx = x2;
  80042c:	e0fffb17 	ldw	r3,-20(fp)
  800430:	e0bffe17 	ldw	r2,-8(fp)
  800434:	18800215 	stw	r2,8(r3)
	f->rby = y2;
  800438:	e0fffb17 	ldw	r3,-20(fp)
  80043c:	e0bfff17 	ldw	r2,-4(fp)
  800440:	18800315 	stw	r2,12(r3)
	drawFrame(f, type);
  800444:	e13ffb17 	ldw	r4,-20(fp)
  800448:	e1400217 	ldw	r5,8(fp)
  80044c:	08004680 	call	800468 <drawFrame>
	return f;
  800450:	e0bffb17 	ldw	r2,-20(fp)
}
  800454:	e037883a 	mov	sp,fp
  800458:	dfc00117 	ldw	ra,4(sp)
  80045c:	df000017 	ldw	fp,0(sp)
  800460:	dec00204 	addi	sp,sp,8
  800464:	f800283a 	ret

00800468 <drawFrame>:
/*
 * Draw the frame of board.
 * type = 1 =>score board, type = 2 => control panel, type = 3 => status board
 */
void drawFrame(struct Frame* f, int type) {
  800468:	defff304 	addi	sp,sp,-52
  80046c:	dfc00c15 	stw	ra,48(sp)
  800470:	df000b15 	stw	fp,44(sp)
  800474:	dd000a15 	stw	r20,40(sp)
  800478:	dcc00915 	stw	r19,36(sp)
  80047c:	dc800815 	stw	r18,32(sp)
  800480:	dc400715 	stw	r17,28(sp)
  800484:	dc000615 	stw	r16,24(sp)
  800488:	df000604 	addi	fp,sp,24
  80048c:	e13ffd15 	stw	r4,-12(fp)
  800490:	e17ffe15 	stw	r5,-8(fp)
	switch(type) {
  800494:	e0bffe17 	ldw	r2,-8(fp)
  800498:	e0bfff15 	stw	r2,-4(fp)
  80049c:	e0ffff17 	ldw	r3,-4(fp)
  8004a0:	188000a0 	cmpeqi	r2,r3,2
  8004a4:	1000321e 	bne	r2,zero,800570 <drawFrame+0x108>
  8004a8:	e0ffff17 	ldw	r3,-4(fp)
  8004ac:	188000e0 	cmpeqi	r2,r3,3
  8004b0:	10001a1e 	bne	r2,zero,80051c <drawFrame+0xb4>
  8004b4:	e0ffff17 	ldw	r3,-4(fp)
  8004b8:	18800060 	cmpeqi	r2,r3,1
  8004bc:	1000011e 	bne	r2,zero,8004c4 <drawFrame+0x5c>
  8004c0:	00002b06 	br	800570 <drawFrame+0x108>
	case 1:
		alt_up_pixel_buffer_dma_draw_box(pixel_buffer, f->ltx, f->lty, f->rbx, f->rby, getColor(0x11, 0x00, 0x22), 0);
  8004c4:	d47bf217 	ldw	r17,-4152(gp)
  8004c8:	e0bffd17 	ldw	r2,-12(fp)
  8004cc:	14800017 	ldw	r18,0(r2)
  8004d0:	e0bffd17 	ldw	r2,-12(fp)
  8004d4:	14c00117 	ldw	r19,4(r2)
  8004d8:	e0bffd17 	ldw	r2,-12(fp)
  8004dc:	15000217 	ldw	r20,8(r2)
  8004e0:	e0bffd17 	ldw	r2,-12(fp)
  8004e4:	14000317 	ldw	r16,12(r2)
  8004e8:	01000444 	movi	r4,17
  8004ec:	000b883a 	mov	r5,zero
  8004f0:	01800884 	movi	r6,34
  8004f4:	0801e980 	call	801e98 <getColor>
  8004f8:	dc000015 	stw	r16,0(sp)
  8004fc:	d8800115 	stw	r2,4(sp)
  800500:	d8000215 	stw	zero,8(sp)
  800504:	8809883a 	mov	r4,r17
  800508:	900b883a 	mov	r5,r18
  80050c:	980d883a 	mov	r6,r19
  800510:	a00f883a 	mov	r7,r20
  800514:	080e8100 	call	80e810 <alt_up_pixel_buffer_dma_draw_box>
		break;
  800518:	00001506 	br	800570 <drawFrame+0x108>
	case 2:
		//alt_up_pixel_buffer_dma_draw_box(pixel_buffer, f->ltx, f->lty, f->rbx, f->rby, getColor(0x33, 0xFF, 0xCC), 0);
		break;
	case 3:
		alt_up_pixel_buffer_dma_draw_box(pixel_buffer, f->ltx, f->lty, f->rbx, f->rby, getColor(0x33, 0xFF, 0xCC), 0);
  80051c:	d47bf217 	ldw	r17,-4152(gp)
  800520:	e0bffd17 	ldw	r2,-12(fp)
  800524:	14800017 	ldw	r18,0(r2)
  800528:	e0bffd17 	ldw	r2,-12(fp)
  80052c:	14c00117 	ldw	r19,4(r2)
  800530:	e0bffd17 	ldw	r2,-12(fp)
  800534:	15000217 	ldw	r20,8(r2)
  800538:	e0bffd17 	ldw	r2,-12(fp)
  80053c:	14000317 	ldw	r16,12(r2)
  800540:	01000cc4 	movi	r4,51
  800544:	01403fc4 	movi	r5,255
  800548:	01803304 	movi	r6,204
  80054c:	0801e980 	call	801e98 <getColor>
  800550:	dc000015 	stw	r16,0(sp)
  800554:	d8800115 	stw	r2,4(sp)
  800558:	d8000215 	stw	zero,8(sp)
  80055c:	8809883a 	mov	r4,r17
  800560:	900b883a 	mov	r5,r18
  800564:	980d883a 	mov	r6,r19
  800568:	a00f883a 	mov	r7,r20
  80056c:	080e8100 	call	80e810 <alt_up_pixel_buffer_dma_draw_box>
		break;
	default:
		break;
	}
}
  800570:	e037883a 	mov	sp,fp
  800574:	dfc00617 	ldw	ra,24(sp)
  800578:	df000517 	ldw	fp,20(sp)
  80057c:	dd000417 	ldw	r20,16(sp)
  800580:	dcc00317 	ldw	r19,12(sp)
  800584:	dc800217 	ldw	r18,8(sp)
  800588:	dc400117 	ldw	r17,4(sp)
  80058c:	dc000017 	ldw	r16,0(sp)
  800590:	dec00704 	addi	sp,sp,28
  800594:	f800283a 	ret

00800598 <updateScoreFrame>:

/*Update the score board with current score*/
void updateScoreFrame(struct Frame* f, struct GameInfo* g) {
  800598:	defff904 	addi	sp,sp,-28
  80059c:	dfc00615 	stw	ra,24(sp)
  8005a0:	df000515 	stw	fp,20(sp)
  8005a4:	df000504 	addi	fp,sp,20
  8005a8:	e13ffe15 	stw	r4,-8(fp)
  8005ac:	e17fff15 	stw	r5,-4(fp)
	char string[12];
	sprintf(string, "Score %d", g->score);
  8005b0:	e0bfff17 	ldw	r2,-4(fp)
  8005b4:	11800017 	ldw	r6,0(r2)
  8005b8:	e13ffb04 	addi	r4,fp,-20
  8005bc:	01402074 	movhi	r5,129
  8005c0:	29544404 	addi	r5,r5,20752
  8005c4:	080476c0 	call	80476c <sprintf>
	alt_up_char_buffer_string(char_buffer, string, 65, 3);
  8005c8:	d13bf117 	ldw	r4,-4156(gp)
  8005cc:	e17ffb04 	addi	r5,fp,-20
  8005d0:	01801044 	movi	r6,65
  8005d4:	01c000c4 	movi	r7,3
  8005d8:	080e2780 	call	80e278 <alt_up_char_buffer_string>
}
  8005dc:	e037883a 	mov	sp,fp
  8005e0:	dfc00117 	ldw	ra,4(sp)
  8005e4:	df000017 	ldw	fp,0(sp)
  8005e8:	dec00204 	addi	sp,sp,8
  8005ec:	f800283a 	ret

008005f0 <updateStatusFrame>:

/*Update the status board with message*/
void updateStatusFrame(struct Frame* f, char* msg) {
  8005f0:	deffd004 	addi	sp,sp,-192
  8005f4:	dfc02f15 	stw	ra,188(sp)
  8005f8:	df002e15 	stw	fp,184(sp)
  8005fc:	dc002d15 	stw	r16,180(sp)
  800600:	df002d04 	addi	fp,sp,180
  800604:	e13ffe15 	stw	r4,-8(fp)
  800608:	e17fff15 	stw	r5,-4(fp)
	int i = 0, j = 0, isPrint = 1, len1 = 0, len2 = 0;
  80060c:	e03fd715 	stw	zero,-164(fp)
  800610:	e03fd615 	stw	zero,-168(fp)
  800614:	00800044 	movi	r2,1
  800618:	e0bfd515 	stw	r2,-172(fp)
  80061c:	e03fd415 	stw	zero,-176(fp)
  800620:	e03fd315 	stw	zero,-180(fp)

	if(msg != NULL) {
  800624:	e0bfff17 	ldw	r2,-4(fp)
  800628:	1005003a 	cmpeq	r2,r2,zero
  80062c:	1000841e 	bne	r2,zero,800840 <updateStatusFrame+0x250>
		if(strcmp(msg, " ") == 0) {
  800630:	e13fff17 	ldw	r4,-4(fp)
  800634:	01402074 	movhi	r5,129
  800638:	29544704 	addi	r5,r5,20764
  80063c:	08048400 	call	804840 <strcmp>
  800640:	1004c03a 	cmpne	r2,r2,zero
  800644:	10005c1e 	bne	r2,zero,8007b8 <updateStatusFrame+0x1c8>
			for(i = 0; i < 10; i++) {
  800648:	e03fd715 	stw	zero,-164(fp)
  80064c:	00000b06 	br	80067c <updateStatusFrame+0x8c>
				alt_up_char_buffer_string(char_buffer, "                 ", 64, 46+i);
  800650:	d13bf117 	ldw	r4,-4156(gp)
  800654:	e0bfd717 	ldw	r2,-164(fp)
  800658:	10800b84 	addi	r2,r2,46
  80065c:	100f883a 	mov	r7,r2
  800660:	01402074 	movhi	r5,129
  800664:	29544804 	addi	r5,r5,20768
  800668:	01801004 	movi	r6,64
  80066c:	080e2780 	call	80e278 <alt_up_char_buffer_string>
void updateStatusFrame(struct Frame* f, char* msg) {
	int i = 0, j = 0, isPrint = 1, len1 = 0, len2 = 0;

	if(msg != NULL) {
		if(strcmp(msg, " ") == 0) {
			for(i = 0; i < 10; i++) {
  800670:	e0bfd717 	ldw	r2,-164(fp)
  800674:	10800044 	addi	r2,r2,1
  800678:	e0bfd715 	stw	r2,-164(fp)
  80067c:	e0bfd717 	ldw	r2,-164(fp)
  800680:	10800290 	cmplti	r2,r2,10
  800684:	103ff21e 	bne	r2,zero,800650 <updateStatusFrame+0x60>
  800688:	00006d06 	br	800840 <updateStatusFrame+0x250>
			}
		} else {
			char* string[30];
			char string1[15], string2[15];
			while((string[i] = strsep(&msg, " "))!=NULL) {
				strcpy(string1, string[i-1]);
  80068c:	e0bfd717 	ldw	r2,-164(fp)
  800690:	10bfffc4 	addi	r2,r2,-1
  800694:	1085883a 	add	r2,r2,r2
  800698:	1085883a 	add	r2,r2,r2
  80069c:	e0ffd304 	addi	r3,fp,-180
  8006a0:	10c5883a 	add	r2,r2,r3
  8006a4:	10800d04 	addi	r2,r2,52
  8006a8:	11400017 	ldw	r5,0(r2)
  8006ac:	e13fd804 	addi	r4,fp,-160
  8006b0:	08048fc0 	call	8048fc <strcpy>
				if(isPrint == 0) {
  8006b4:	e0bfd517 	ldw	r2,-172(fp)
  8006b8:	1004c03a 	cmpne	r2,r2,zero
  8006bc:	10003a1e 	bne	r2,zero,8007a8 <updateStatusFrame+0x1b8>
					len1 = strlen(string[i-1]);
  8006c0:	e0bfd717 	ldw	r2,-164(fp)
  8006c4:	10bfffc4 	addi	r2,r2,-1
  8006c8:	1085883a 	add	r2,r2,r2
  8006cc:	1085883a 	add	r2,r2,r2
  8006d0:	e13fd304 	addi	r4,fp,-180
  8006d4:	1105883a 	add	r2,r2,r4
  8006d8:	10800d04 	addi	r2,r2,52
  8006dc:	11000017 	ldw	r4,0(r2)
  8006e0:	08049880 	call	804988 <strlen>
  8006e4:	e0bfd415 	stw	r2,-176(fp)
					len2 = strlen(string[i]);
  8006e8:	e0bfd717 	ldw	r2,-164(fp)
  8006ec:	1085883a 	add	r2,r2,r2
  8006f0:	1085883a 	add	r2,r2,r2
  8006f4:	e0ffd304 	addi	r3,fp,-180
  8006f8:	10c5883a 	add	r2,r2,r3
  8006fc:	10800d04 	addi	r2,r2,52
  800700:	11000017 	ldw	r4,0(r2)
  800704:	08049880 	call	804988 <strlen>
  800708:	e0bfd315 	stw	r2,-180(fp)
					if(len1+len2 < 15) {
  80070c:	e0ffd417 	ldw	r3,-176(fp)
  800710:	e0bfd317 	ldw	r2,-180(fp)
  800714:	1885883a 	add	r2,r3,r2
  800718:	108003c8 	cmpgei	r2,r2,15
  80071c:	1000171e 	bne	r2,zero,80077c <updateStatusFrame+0x18c>
						strcpy(string2, string[i]);
  800720:	e0bfd717 	ldw	r2,-164(fp)
  800724:	1085883a 	add	r2,r2,r2
  800728:	1085883a 	add	r2,r2,r2
  80072c:	e13fd304 	addi	r4,fp,-180
  800730:	1105883a 	add	r2,r2,r4
  800734:	10800d04 	addi	r2,r2,52
  800738:	11400017 	ldw	r5,0(r2)
  80073c:	e13fdbc4 	addi	r4,fp,-145
  800740:	08048fc0 	call	8048fc <strcpy>
						strncat(string1, " ", 1);
  800744:	e43fd804 	addi	r16,fp,-160
  800748:	e13fd804 	addi	r4,fp,-160
  80074c:	08049880 	call	804988 <strlen>
  800750:	8085883a 	add	r2,r16,r2
  800754:	1007883a 	mov	r3,r2
  800758:	00800804 	movi	r2,32
  80075c:	18800005 	stb	r2,0(r3)
  800760:	18000045 	stb	zero,1(r3)
						strncat(string1, string2, len2);
  800764:	e1bfd317 	ldw	r6,-180(fp)
  800768:	e13fd804 	addi	r4,fp,-160
  80076c:	e17fdbc4 	addi	r5,fp,-145
  800770:	08049fc0 	call	8049fc <strncat>
						isPrint = 1;
  800774:	00800044 	movi	r2,1
  800778:	e0bfd515 	stw	r2,-172(fp)
					}
					alt_up_char_buffer_string(char_buffer, string1, 64, 46+j);
  80077c:	d13bf117 	ldw	r4,-4156(gp)
  800780:	e0bfd617 	ldw	r2,-168(fp)
  800784:	10800b84 	addi	r2,r2,46
  800788:	100f883a 	mov	r7,r2
  80078c:	e17fd804 	addi	r5,fp,-160
  800790:	01801004 	movi	r6,64
  800794:	080e2780 	call	80e278 <alt_up_char_buffer_string>
					j++;
  800798:	e0bfd617 	ldw	r2,-168(fp)
  80079c:	10800044 	addi	r2,r2,1
  8007a0:	e0bfd615 	stw	r2,-168(fp)
  8007a4:	00000106 	br	8007ac <updateStatusFrame+0x1bc>
				} else isPrint = 0;
  8007a8:	e03fd515 	stw	zero,-172(fp)
				i++;
  8007ac:	e0bfd717 	ldw	r2,-164(fp)
  8007b0:	10800044 	addi	r2,r2,1
  8007b4:	e0bfd715 	stw	r2,-164(fp)
				alt_up_char_buffer_string(char_buffer, "                 ", 64, 46+i);
			}
		} else {
			char* string[30];
			char string1[15], string2[15];
			while((string[i] = strsep(&msg, " "))!=NULL) {
  8007b8:	e43fd717 	ldw	r16,-164(fp)
  8007bc:	e13fff04 	addi	r4,fp,-4
  8007c0:	01402074 	movhi	r5,129
  8007c4:	29544704 	addi	r5,r5,20764
  8007c8:	0804aac0 	call	804aac <strsep>
  8007cc:	1007883a 	mov	r3,r2
  8007d0:	8405883a 	add	r2,r16,r16
  8007d4:	1085883a 	add	r2,r2,r2
  8007d8:	e13fd304 	addi	r4,fp,-180
  8007dc:	1105883a 	add	r2,r2,r4
  8007e0:	10800d04 	addi	r2,r2,52
  8007e4:	10c00015 	stw	r3,0(r2)
  8007e8:	8405883a 	add	r2,r16,r16
  8007ec:	1085883a 	add	r2,r2,r2
  8007f0:	e0ffd304 	addi	r3,fp,-180
  8007f4:	10c5883a 	add	r2,r2,r3
  8007f8:	10800d04 	addi	r2,r2,52
  8007fc:	10800017 	ldw	r2,0(r2)
  800800:	1004c03a 	cmpne	r2,r2,zero
  800804:	103fa11e 	bne	r2,zero,80068c <updateStatusFrame+0x9c>
					}
					alt_up_char_buffer_string(char_buffer, string1, 64, 46+j);
					j++;
				} else isPrint = 0;
				i++;
			}alt_up_char_buffer_string(char_buffer, string[i-1], 64, 46+j);
  800808:	d13bf117 	ldw	r4,-4156(gp)
  80080c:	e0bfd717 	ldw	r2,-164(fp)
  800810:	10bfffc4 	addi	r2,r2,-1
  800814:	1085883a 	add	r2,r2,r2
  800818:	1085883a 	add	r2,r2,r2
  80081c:	e0ffd304 	addi	r3,fp,-180
  800820:	10c5883a 	add	r2,r2,r3
  800824:	10800d04 	addi	r2,r2,52
  800828:	11400017 	ldw	r5,0(r2)
  80082c:	e0bfd617 	ldw	r2,-168(fp)
  800830:	10800b84 	addi	r2,r2,46
  800834:	100f883a 	mov	r7,r2
  800838:	01801004 	movi	r6,64
  80083c:	080e2780 	call	80e278 <alt_up_char_buffer_string>
		}
		//free(msg);
	}
}
  800840:	e037883a 	mov	sp,fp
  800844:	dfc00217 	ldw	ra,8(sp)
  800848:	df000117 	ldw	fp,4(sp)
  80084c:	dc000017 	ldw	r16,0(sp)
  800850:	dec00304 	addi	sp,sp,12
  800854:	f800283a 	ret

00800858 <updateControlFrame>:

void updateControlFrame(struct Frame* f) {
  800858:	defffe04 	addi	sp,sp,-8
  80085c:	df000115 	stw	fp,4(sp)
  800860:	df000104 	addi	fp,sp,4
  800864:	e13fff15 	stw	r4,-4(fp)

}
  800868:	e037883a 	mov	sp,fp
  80086c:	df000017 	ldw	fp,0(sp)
  800870:	dec00104 	addi	sp,sp,4
  800874:	f800283a 	ret

00800878 <distance>:
 * test
 */
#include "Game.h"

/*helper function to calculate the distance between two points */
float distance(int x1, int y1, int x2, int y2) {
  800878:	defff804 	addi	sp,sp,-32
  80087c:	dfc00715 	stw	ra,28(sp)
  800880:	df000615 	stw	fp,24(sp)
  800884:	df000604 	addi	fp,sp,24
  800888:	e13ffc15 	stw	r4,-16(fp)
  80088c:	e17ffd15 	stw	r5,-12(fp)
  800890:	e1bffe15 	stw	r6,-8(fp)
  800894:	e1ffff15 	stw	r7,-4(fp)
	int dx = x2 - x1;
  800898:	e0fffe17 	ldw	r3,-8(fp)
  80089c:	e0bffc17 	ldw	r2,-16(fp)
  8008a0:	1885c83a 	sub	r2,r3,r2
  8008a4:	e0bffb15 	stw	r2,-20(fp)
	int dy = y2 - y1;
  8008a8:	e0ffff17 	ldw	r3,-4(fp)
  8008ac:	e0bffd17 	ldw	r2,-12(fp)
  8008b0:	1885c83a 	sub	r2,r3,r2
  8008b4:	e0bffa15 	stw	r2,-24(fp)
	return sqrt((float)(dx*dx+dy*dy));
  8008b8:	e0fffb17 	ldw	r3,-20(fp)
  8008bc:	e0bffb17 	ldw	r2,-20(fp)
  8008c0:	1889383a 	mul	r4,r3,r2
  8008c4:	e0fffa17 	ldw	r3,-24(fp)
  8008c8:	e0bffa17 	ldw	r2,-24(fp)
  8008cc:	1885383a 	mul	r2,r3,r2
  8008d0:	2089883a 	add	r4,r4,r2
  8008d4:	08024b80 	call	8024b8 <__floatsisf>
  8008d8:	1009883a 	mov	r4,r2
  8008dc:	08025500 	call	802550 <__extendsfdf2>
  8008e0:	100b883a 	mov	r5,r2
  8008e4:	180d883a 	mov	r6,r3
  8008e8:	2809883a 	mov	r4,r5
  8008ec:	300b883a 	mov	r5,r6
  8008f0:	08020100 	call	802010 <sqrt>
  8008f4:	100b883a 	mov	r5,r2
  8008f8:	180d883a 	mov	r6,r3
  8008fc:	2809883a 	mov	r4,r5
  800900:	300b883a 	mov	r5,r6
  800904:	08033540 	call	803354 <__truncdfsf2>
}
  800908:	e037883a 	mov	sp,fp
  80090c:	dfc00117 	ldw	ra,4(sp)
  800910:	df000017 	ldw	fp,0(sp)
  800914:	dec00204 	addi	sp,sp,8
  800918:	f800283a 	ret

0080091c <my_alarm_callback>:

/*
 * System clock that run the animation for all objects in the environment
 */
alt_u32 my_alarm_callback (void* paras)
{
  80091c:	defffa04 	addi	sp,sp,-24
  800920:	dfc00515 	stw	ra,20(sp)
  800924:	df000415 	stw	fp,16(sp)
  800928:	df000404 	addi	fp,sp,16
  80092c:	e13fff15 	stw	r4,-4(fp)
	int i;
	for(i = 0; i < ((struct Env*)paras)->size; i++) {
  800930:	e03ffe15 	stw	zero,-8(fp)
  800934:	00003006 	br	8009f8 <my_alarm_callback+0xdc>
		(*(((struct Env*)paras)->o+i))->animate(pixel_buffer, &((*(((struct Env*)paras)->o+i))->currImg),
  800938:	e0bfff17 	ldw	r2,-4(fp)
  80093c:	10c00017 	ldw	r3,0(r2)
  800940:	e0bffe17 	ldw	r2,-8(fp)
  800944:	1085883a 	add	r2,r2,r2
  800948:	1085883a 	add	r2,r2,r2
  80094c:	1885883a 	add	r2,r3,r2
  800950:	10800017 	ldw	r2,0(r2)
  800954:	12000d17 	ldw	r8,52(r2)
  800958:	d13bf217 	ldw	r4,-4152(gp)
  80095c:	e0bfff17 	ldw	r2,-4(fp)
  800960:	10c00017 	ldw	r3,0(r2)
  800964:	e0bffe17 	ldw	r2,-8(fp)
  800968:	1085883a 	add	r2,r2,r2
  80096c:	1085883a 	add	r2,r2,r2
  800970:	1885883a 	add	r2,r3,r2
  800974:	10800017 	ldw	r2,0(r2)
  800978:	11400804 	addi	r5,r2,32
  80097c:	e0bfff17 	ldw	r2,-4(fp)
  800980:	10c00017 	ldw	r3,0(r2)
  800984:	e0bffe17 	ldw	r2,-8(fp)
  800988:	1085883a 	add	r2,r2,r2
  80098c:	1085883a 	add	r2,r2,r2
  800990:	1885883a 	add	r2,r3,r2
  800994:	10800017 	ldw	r2,0(r2)
  800998:	11800017 	ldw	r6,0(r2)
  80099c:	e0bfff17 	ldw	r2,-4(fp)
  8009a0:	10c00017 	ldw	r3,0(r2)
  8009a4:	e0bffe17 	ldw	r2,-8(fp)
  8009a8:	1085883a 	add	r2,r2,r2
  8009ac:	1085883a 	add	r2,r2,r2
  8009b0:	1885883a 	add	r2,r3,r2
  8009b4:	10800017 	ldw	r2,0(r2)
  8009b8:	11c00117 	ldw	r7,4(r2)
  8009bc:	e0bfff17 	ldw	r2,-4(fp)
  8009c0:	10c00017 	ldw	r3,0(r2)
  8009c4:	e0bffe17 	ldw	r2,-8(fp)
  8009c8:	1085883a 	add	r2,r2,r2
  8009cc:	1085883a 	add	r2,r2,r2
  8009d0:	1885883a 	add	r2,r3,r2
  8009d4:	10800017 	ldw	r2,0(r2)
  8009d8:	10800217 	ldw	r2,8(r2)
  8009dc:	d8800015 	stw	r2,0(sp)
  8009e0:	00800044 	movi	r2,1
  8009e4:	d8800115 	stw	r2,4(sp)
  8009e8:	403ee83a 	callr	r8
 * System clock that run the animation for all objects in the environment
 */
alt_u32 my_alarm_callback (void* paras)
{
	int i;
	for(i = 0; i < ((struct Env*)paras)->size; i++) {
  8009ec:	e0bffe17 	ldw	r2,-8(fp)
  8009f0:	10800044 	addi	r2,r2,1
  8009f4:	e0bffe15 	stw	r2,-8(fp)
  8009f8:	e0bfff17 	ldw	r2,-4(fp)
  8009fc:	10c00117 	ldw	r3,4(r2)
  800a00:	e0bffe17 	ldw	r2,-8(fp)
  800a04:	10ffcc16 	blt	r2,r3,800938 <my_alarm_callback+0x1c>
		(*(((struct Env*)paras)->o+i))->animate(pixel_buffer, &((*(((struct Env*)paras)->o+i))->currImg),
					(*(((struct Env*)paras)->o+i))->x, (*(((struct Env*)paras)->o+i))->y, (*(((struct Env*)paras)->o+i))->scale, 1);
	}

	backgroundAnimation(pixel_buffer, ((struct Env*)paras)->coord);
  800a08:	d13bf217 	ldw	r4,-4152(gp)
  800a0c:	e0bfff17 	ldw	r2,-4(fp)
  800a10:	11400204 	addi	r5,r2,8
  800a14:	0801c540 	call	801c54 <backgroundAnimation>
 * Obtain the system clock rate in ticks/s. 
 */

static ALT_INLINE alt_u32 ALT_ALWAYS_INLINE alt_ticks_per_second (void)
{
  return _alt_tick_rate;
  800a18:	008020b4 	movhi	r2,130
  800a1c:	108d3904 	addi	r2,r2,13540
  800a20:	10800017 	ldw	r2,0(r2)
  800a24:	1009883a 	mov	r4,r2

	return alt_ticks_per_second()/10; //100ms
  800a28:	01400284 	movi	r5,10
  800a2c:	08035040 	call	803504 <__udivsi3>
}
  800a30:	e037883a 	mov	sp,fp
  800a34:	dfc00117 	ldw	ra,4(sp)
  800a38:	df000017 	ldw	fp,0(sp)
  800a3c:	dec00204 	addi	sp,sp,8
  800a40:	f800283a 	ret

00800a44 <initVGA>:

void initVGA() {
  800a44:	defffc04 	addi	sp,sp,-16
  800a48:	dfc00315 	stw	ra,12(sp)
  800a4c:	df000215 	stw	fp,8(sp)
  800a50:	df000204 	addi	fp,sp,8
	// Use the name of your pixel buffer DMA core
	  pixel_buffer =alt_up_pixel_buffer_dma_open_dev("/dev/pixel_buffer_dma_0");
  800a54:	01002074 	movhi	r4,129
  800a58:	21144d04 	addi	r4,r4,20788
  800a5c:	080e3e80 	call	80e3e8 <alt_up_pixel_buffer_dma_open_dev>
  800a60:	d0bbf215 	stw	r2,-4152(gp)

	  // Set the background buffer address  Although we dont use thebackground,
	  // they only provide a function to change the background buffer address, so
	  // we must set that, and then swap it to the foreground.
	  unsigned int pixel_buffer_addr1 = PIXEL_BUFFER_BASE;
  800a64:	00804034 	movhi	r2,256
  800a68:	e0bfff15 	stw	r2,-4(fp)
	  unsigned int pixel_buffer_addr2 = PIXEL_BUFFER_BASE + (320*240*2);
  800a6c:	008040b4 	movhi	r2,258
  800a70:	10960004 	addi	r2,r2,22528
  800a74:	e0bffe15 	stw	r2,-8(fp)

	  alt_up_pixel_buffer_dma_change_back_buffer_address(pixel_buffer,pixel_buffer_addr1);
  800a78:	d13bf217 	ldw	r4,-4152(gp)
  800a7c:	e17fff17 	ldw	r5,-4(fp)
  800a80:	080e5c80 	call	80e5c8 <alt_up_pixel_buffer_dma_change_back_buffer_address>
	  // Swap background and foreground buffers
	  alt_up_pixel_buffer_dma_swap_buffers(pixel_buffer);
  800a84:	d13bf217 	ldw	r4,-4152(gp)
  800a88:	080e6200 	call	80e620 <alt_up_pixel_buffer_dma_swap_buffers>
	  // Wait for the swap to complete
	  while(alt_up_pixel_buffer_dma_check_swap_buffers_status(pixel_buffer));
  800a8c:	d13bf217 	ldw	r4,-4152(gp)
  800a90:	080e6780 	call	80e678 <alt_up_pixel_buffer_dma_check_swap_buffers_status>
  800a94:	1004c03a 	cmpne	r2,r2,zero
  800a98:	103ffc1e 	bne	r2,zero,800a8c <initVGA+0x48>

	  alt_up_pixel_buffer_dma_change_back_buffer_address(pixel_buffer,pixel_buffer_addr2);
  800a9c:	d13bf217 	ldw	r4,-4152(gp)
  800aa0:	e17ffe17 	ldw	r5,-8(fp)
  800aa4:	080e5c80 	call	80e5c8 <alt_up_pixel_buffer_dma_change_back_buffer_address>
	  // Clear the screen
	  alt_up_pixel_buffer_dma_clear_screen(pixel_buffer, 0);
  800aa8:	d13bf217 	ldw	r4,-4152(gp)
  800aac:	000b883a 	mov	r5,zero
  800ab0:	080e6ac0 	call	80e6ac <alt_up_pixel_buffer_dma_clear_screen>
	  alt_up_pixel_buffer_dma_clear_screen(pixel_buffer, 1);
  800ab4:	d13bf217 	ldw	r4,-4152(gp)
  800ab8:	01400044 	movi	r5,1
  800abc:	080e6ac0 	call	80e6ac <alt_up_pixel_buffer_dma_clear_screen>
}
  800ac0:	e037883a 	mov	sp,fp
  800ac4:	dfc00117 	ldw	ra,4(sp)
  800ac8:	df000017 	ldw	fp,0(sp)
  800acc:	dec00204 	addi	sp,sp,8
  800ad0:	f800283a 	ret

00800ad4 <loadSDCard>:

bool loadSDCard(alt_up_sd_card_dev* device) {
  800ad4:	defffc04 	addi	sp,sp,-16
  800ad8:	dfc00315 	stw	ra,12(sp)
  800adc:	df000215 	stw	fp,8(sp)
  800ae0:	df000204 	addi	fp,sp,8
  800ae4:	e13ffe15 	stw	r4,-8(fp)
	if((device = alt_up_sd_card_open_dev("/dev/SD_Card")) != NULL) {
  800ae8:	01002074 	movhi	r4,129
  800aec:	21145304 	addi	r4,r4,20812
  800af0:	08126bc0 	call	8126bc <alt_up_sd_card_open_dev>
  800af4:	e0bffe15 	stw	r2,-8(fp)
  800af8:	e0bffe17 	ldw	r2,-8(fp)
  800afc:	1005003a 	cmpeq	r2,r2,zero
  800b00:	1000121e 	bne	r2,zero,800b4c <loadSDCard+0x78>
		if (alt_up_sd_card_is_Present()) {
  800b04:	08127800 	call	812780 <alt_up_sd_card_is_Present>
  800b08:	1005003a 	cmpeq	r2,r2,zero
  800b0c:	10000f1e 	bne	r2,zero,800b4c <loadSDCard+0x78>
			printf("Card connected.\n");
  800b10:	01002074 	movhi	r4,129
  800b14:	21145704 	addi	r4,r4,20828
  800b18:	08046540 	call	804654 <puts>
			if (alt_up_sd_card_is_FAT16()) {
  800b1c:	08128480 	call	812848 <alt_up_sd_card_is_FAT16>
  800b20:	1005003a 	cmpeq	r2,r2,zero
  800b24:	1000061e 	bne	r2,zero,800b40 <loadSDCard+0x6c>
				printf("FAT16 file system detected.\n");
  800b28:	01002074 	movhi	r4,129
  800b2c:	21145b04 	addi	r4,r4,20844
  800b30:	08046540 	call	804654 <puts>
				return true;
  800b34:	00800044 	movi	r2,1
  800b38:	e0bfff15 	stw	r2,-4(fp)
  800b3c:	00000406 	br	800b50 <loadSDCard+0x7c>
			} else {
				printf("Unknown file system.\n");
  800b40:	01002074 	movhi	r4,129
  800b44:	21146204 	addi	r4,r4,20872
  800b48:	08046540 	call	804654 <puts>
			}
		}
	}
	return false;
  800b4c:	e03fff15 	stw	zero,-4(fp)
  800b50:	e0bfff17 	ldw	r2,-4(fp)
}
  800b54:	e037883a 	mov	sp,fp
  800b58:	dfc00117 	ldw	ra,4(sp)
  800b5c:	df000017 	ldw	fp,0(sp)
  800b60:	dec00204 	addi	sp,sp,8
  800b64:	f800283a 	ret

00800b68 <loadSDImage>:

/*
 * Load bitmap image from SD card.  The pixel data in the file still need to be decoded
 * because it was encoded in the bitmap file structure for compression.
 */
bool loadSDImage(char* filename, int** destination) {
  800b68:	defff404 	addi	sp,sp,-48
  800b6c:	dfc00b15 	stw	ra,44(sp)
  800b70:	df000a15 	stw	fp,40(sp)
  800b74:	df000a04 	addi	fp,sp,40
  800b78:	e13ffd15 	stw	r4,-12(fp)
  800b7c:	e17ffe15 	stw	r5,-8(fp)
	int i, j, bytes = 0, offset = 0, size = 0, byte = 0;
  800b80:	e03ffa15 	stw	zero,-24(fp)
  800b84:	e03ff915 	stw	zero,-28(fp)
  800b88:	e03ff815 	stw	zero,-32(fp)
  800b8c:	e03ff715 	stw	zero,-36(fp)
	int file_pointer = alt_up_sd_card_fopen(filename, false);
  800b90:	e13ffd17 	ldw	r4,-12(fp)
  800b94:	000b883a 	mov	r5,zero
  800b98:	0812d400 	call	812d40 <alt_up_sd_card_fopen>
  800b9c:	10bfffcc 	andi	r2,r2,65535
  800ba0:	10a0001c 	xori	r2,r2,32768
  800ba4:	10a00004 	addi	r2,r2,-32768
  800ba8:	e0bff615 	stw	r2,-40(fp)
	if(file_pointer < 0) return false;
  800bac:	e0bff617 	ldw	r2,-40(fp)
  800bb0:	1004403a 	cmpge	r2,r2,zero
  800bb4:	10000a1e 	bne	r2,zero,800be0 <loadSDImage+0x78>
  800bb8:	e03fff15 	stw	zero,-4(fp)
  800bbc:	00007006 	br	800d80 <loadSDImage+0x218>

	//Start reading the bitmap header
	while(bytes < 10) {
		alt_up_sd_card_read(file_pointer);
  800bc0:	e0bff617 	ldw	r2,-40(fp)
  800bc4:	113fffcc 	andi	r4,r2,65535
  800bc8:	2120001c 	xori	r4,r4,32768
  800bcc:	21200004 	addi	r4,r4,-32768
  800bd0:	08132040 	call	813204 <alt_up_sd_card_read>
		bytes++;
  800bd4:	e0bffa17 	ldw	r2,-24(fp)
  800bd8:	10800044 	addi	r2,r2,1
  800bdc:	e0bffa15 	stw	r2,-24(fp)
	int i, j, bytes = 0, offset = 0, size = 0, byte = 0;
	int file_pointer = alt_up_sd_card_fopen(filename, false);
	if(file_pointer < 0) return false;

	//Start reading the bitmap header
	while(bytes < 10) {
  800be0:	e0bffa17 	ldw	r2,-24(fp)
  800be4:	10800290 	cmplti	r2,r2,10
  800be8:	103ff51e 	bne	r2,zero,800bc0 <loadSDImage+0x58>
		alt_up_sd_card_read(file_pointer);
		bytes++;
	}
	offset = alt_up_sd_card_read(file_pointer);
  800bec:	e0bff617 	ldw	r2,-40(fp)
  800bf0:	113fffcc 	andi	r4,r2,65535
  800bf4:	2120001c 	xori	r4,r4,32768
  800bf8:	21200004 	addi	r4,r4,-32768
  800bfc:	08132040 	call	813204 <alt_up_sd_card_read>
  800c00:	10bfffcc 	andi	r2,r2,65535
  800c04:	10a0001c 	xori	r2,r2,32768
  800c08:	10a00004 	addi	r2,r2,-32768
  800c0c:	e0bff915 	stw	r2,-28(fp)
	while(bytes < offset){
  800c10:	00001f06 	br	800c90 <loadSDImage+0x128>
		if(bytes == 21) {
  800c14:	e0bffa17 	ldw	r2,-24(fp)
  800c18:	10800558 	cmpnei	r2,r2,21
  800c1c:	1000141e 	bne	r2,zero,800c70 <loadSDImage+0x108>
			size = alt_up_sd_card_read(file_pointer);
  800c20:	e0bff617 	ldw	r2,-40(fp)
  800c24:	113fffcc 	andi	r4,r2,65535
  800c28:	2120001c 	xori	r4,r4,32768
  800c2c:	21200004 	addi	r4,r4,-32768
  800c30:	08132040 	call	813204 <alt_up_sd_card_read>
  800c34:	10bfffcc 	andi	r2,r2,65535
  800c38:	10a0001c 	xori	r2,r2,32768
  800c3c:	10a00004 	addi	r2,r2,-32768
  800c40:	e0bff815 	stw	r2,-32(fp)
			*destination = (int*)malloc(size*size*sizeof(int));
  800c44:	e0fff817 	ldw	r3,-32(fp)
  800c48:	e0bff817 	ldw	r2,-32(fp)
  800c4c:	1885383a 	mul	r2,r3,r2
  800c50:	1085883a 	add	r2,r2,r2
  800c54:	1085883a 	add	r2,r2,r2
  800c58:	1009883a 	mov	r4,r2
  800c5c:	0803e600 	call	803e60 <malloc>
  800c60:	1007883a 	mov	r3,r2
  800c64:	e0bffe17 	ldw	r2,-8(fp)
  800c68:	10c00015 	stw	r3,0(r2)
  800c6c:	00000506 	br	800c84 <loadSDImage+0x11c>
		}
		else
			alt_up_sd_card_read(file_pointer);
  800c70:	e0bff617 	ldw	r2,-40(fp)
  800c74:	113fffcc 	andi	r4,r2,65535
  800c78:	2120001c 	xori	r4,r4,32768
  800c7c:	21200004 	addi	r4,r4,-32768
  800c80:	08132040 	call	813204 <alt_up_sd_card_read>
		bytes++;
  800c84:	e0bffa17 	ldw	r2,-24(fp)
  800c88:	10800044 	addi	r2,r2,1
  800c8c:	e0bffa15 	stw	r2,-24(fp)
	while(bytes < 10) {
		alt_up_sd_card_read(file_pointer);
		bytes++;
	}
	offset = alt_up_sd_card_read(file_pointer);
	while(bytes < offset){
  800c90:	e0fffa17 	ldw	r3,-24(fp)
  800c94:	e0bff917 	ldw	r2,-28(fp)
  800c98:	18bfde16 	blt	r3,r2,800c14 <loadSDImage+0xac>
			alt_up_sd_card_read(file_pointer);
		bytes++;
	}

	//Start reading the pixel data
	for(i = size-1; i >= 0; i--) {
  800c9c:	e0bff817 	ldw	r2,-32(fp)
  800ca0:	10bfffc4 	addi	r2,r2,-1
  800ca4:	e0bffc15 	stw	r2,-16(fp)
  800ca8:	00003006 	br	800d6c <loadSDImage+0x204>
		for(j = 0; j < size; j+=2) {
  800cac:	e03ffb15 	stw	zero,-20(fp)
  800cb0:	00002806 	br	800d54 <loadSDImage+0x1ec>
			byte = alt_up_sd_card_read(file_pointer);
  800cb4:	e0bff617 	ldw	r2,-40(fp)
  800cb8:	113fffcc 	andi	r4,r2,65535
  800cbc:	2120001c 	xori	r4,r4,32768
  800cc0:	21200004 	addi	r4,r4,-32768
  800cc4:	08132040 	call	813204 <alt_up_sd_card_read>
  800cc8:	10bfffcc 	andi	r2,r2,65535
  800ccc:	10a0001c 	xori	r2,r2,32768
  800cd0:	10a00004 	addi	r2,r2,-32768
  800cd4:	e0bff715 	stw	r2,-36(fp)
			*(destination + i*size+j) = byte;
  800cd8:	e0fffc17 	ldw	r3,-16(fp)
  800cdc:	e0bff817 	ldw	r2,-32(fp)
  800ce0:	1885383a 	mul	r2,r3,r2
  800ce4:	1007883a 	mov	r3,r2
  800ce8:	e0bffb17 	ldw	r2,-20(fp)
  800cec:	1885883a 	add	r2,r3,r2
  800cf0:	1085883a 	add	r2,r2,r2
  800cf4:	1085883a 	add	r2,r2,r2
  800cf8:	1007883a 	mov	r3,r2
  800cfc:	e0bffe17 	ldw	r2,-8(fp)
  800d00:	1887883a 	add	r3,r3,r2
  800d04:	e0bff717 	ldw	r2,-36(fp)
  800d08:	18800015 	stw	r2,0(r3)
			*(destination + (i)*size+(j+1)) = byte;
  800d0c:	e0fffc17 	ldw	r3,-16(fp)
  800d10:	e0bff817 	ldw	r2,-32(fp)
  800d14:	1885383a 	mul	r2,r3,r2
  800d18:	1085883a 	add	r2,r2,r2
  800d1c:	1085883a 	add	r2,r2,r2
  800d20:	1007883a 	mov	r3,r2
  800d24:	e0bffe17 	ldw	r2,-8(fp)
  800d28:	1887883a 	add	r3,r3,r2
  800d2c:	e0bffb17 	ldw	r2,-20(fp)
  800d30:	1085883a 	add	r2,r2,r2
  800d34:	1085883a 	add	r2,r2,r2
  800d38:	1885883a 	add	r2,r3,r2
  800d3c:	10c00104 	addi	r3,r2,4
  800d40:	e0bff717 	ldw	r2,-36(fp)
  800d44:	18800015 	stw	r2,0(r3)
		bytes++;
	}

	//Start reading the pixel data
	for(i = size-1; i >= 0; i--) {
		for(j = 0; j < size; j+=2) {
  800d48:	e0bffb17 	ldw	r2,-20(fp)
  800d4c:	10800084 	addi	r2,r2,2
  800d50:	e0bffb15 	stw	r2,-20(fp)
  800d54:	e0fffb17 	ldw	r3,-20(fp)
  800d58:	e0bff817 	ldw	r2,-32(fp)
  800d5c:	18bfd516 	blt	r3,r2,800cb4 <loadSDImage+0x14c>
			alt_up_sd_card_read(file_pointer);
		bytes++;
	}

	//Start reading the pixel data
	for(i = size-1; i >= 0; i--) {
  800d60:	e0bffc17 	ldw	r2,-16(fp)
  800d64:	10bfffc4 	addi	r2,r2,-1
  800d68:	e0bffc15 	stw	r2,-16(fp)
  800d6c:	e0bffc17 	ldw	r2,-16(fp)
  800d70:	1004403a 	cmpge	r2,r2,zero
  800d74:	103fcd1e 	bne	r2,zero,800cac <loadSDImage+0x144>
						break;
					default:
						break;
				}
	}*/
	return true;
  800d78:	00800044 	movi	r2,1
  800d7c:	e0bfff15 	stw	r2,-4(fp)
  800d80:	e0bfff17 	ldw	r2,-4(fp)
}
  800d84:	e037883a 	mov	sp,fp
  800d88:	dfc00117 	ldw	ra,4(sp)
  800d8c:	df000017 	ldw	fp,0(sp)
  800d90:	dec00204 	addi	sp,sp,8
  800d94:	f800283a 	ret

00800d98 <backgroundImage>:

void backgroundImage() {
  800d98:	defffd04 	addi	sp,sp,-12
  800d9c:	dfc00215 	stw	ra,8(sp)
  800da0:	df000115 	stw	fp,4(sp)
  800da4:	df000104 	addi	fp,sp,4

	draw(pixel_buffer, 220, 210, (int*)earth, 64);
  800da8:	d13bf217 	ldw	r4,-4152(gp)
  800dac:	01c02074 	movhi	r7,129
  800db0:	39da8304 	addi	r7,r7,27148
  800db4:	00801004 	movi	r2,64
  800db8:	d8800015 	stw	r2,0(sp)
  800dbc:	01403704 	movi	r5,220
  800dc0:	01803484 	movi	r6,210
  800dc4:	08019d00 	call	8019d0 <draw>
}
  800dc8:	e037883a 	mov	sp,fp
  800dcc:	dfc00117 	ldw	ra,4(sp)
  800dd0:	df000017 	ldw	fp,0(sp)
  800dd4:	dec00204 	addi	sp,sp,8
  800dd8:	f800283a 	ret

00800ddc <checkCollision>:
/*
 * check the collision event between each objects in the environment
 */
void checkCollision(struct Env* e) {
  800ddc:	defffa04 	addi	sp,sp,-24
  800de0:	dfc00515 	stw	ra,20(sp)
  800de4:	df000415 	stw	fp,16(sp)
  800de8:	dc000315 	stw	r16,12(sp)
  800dec:	df000304 	addi	fp,sp,12
  800df0:	e13fff15 	stw	r4,-4(fp)
	int i, j;
	for(i = 0; i < e->size; i++) {
  800df4:	e03ffe15 	stw	zero,-8(fp)
  800df8:	00004306 	br	800f08 <checkCollision+0x12c>
		for(j = 0; j < e->size; j++) {
  800dfc:	e03ffd15 	stw	zero,-12(fp)
  800e00:	00003a06 	br	800eec <checkCollision+0x110>
			if(i != j) {
  800e04:	e0fffe17 	ldw	r3,-8(fp)
  800e08:	e0bffd17 	ldw	r2,-12(fp)
  800e0c:	18803426 	beq	r3,r2,800ee0 <checkCollision+0x104>
				if(distance(e->o[i]->center_x, e->o[i]->center_y, e->o[j]->center_x, e->o[j]->center_y) <= e->o[i]->scale) {
  800e10:	e0bfff17 	ldw	r2,-4(fp)
  800e14:	10c00017 	ldw	r3,0(r2)
  800e18:	e0bffe17 	ldw	r2,-8(fp)
  800e1c:	1085883a 	add	r2,r2,r2
  800e20:	1085883a 	add	r2,r2,r2
  800e24:	1885883a 	add	r2,r3,r2
  800e28:	10800017 	ldw	r2,0(r2)
  800e2c:	11000517 	ldw	r4,20(r2)
  800e30:	e0bfff17 	ldw	r2,-4(fp)
  800e34:	10c00017 	ldw	r3,0(r2)
  800e38:	e0bffe17 	ldw	r2,-8(fp)
  800e3c:	1085883a 	add	r2,r2,r2
  800e40:	1085883a 	add	r2,r2,r2
  800e44:	1885883a 	add	r2,r3,r2
  800e48:	10800017 	ldw	r2,0(r2)
  800e4c:	11400617 	ldw	r5,24(r2)
  800e50:	e0bfff17 	ldw	r2,-4(fp)
  800e54:	10c00017 	ldw	r3,0(r2)
  800e58:	e0bffd17 	ldw	r2,-12(fp)
  800e5c:	1085883a 	add	r2,r2,r2
  800e60:	1085883a 	add	r2,r2,r2
  800e64:	1885883a 	add	r2,r3,r2
  800e68:	10800017 	ldw	r2,0(r2)
  800e6c:	11800517 	ldw	r6,20(r2)
  800e70:	e0bfff17 	ldw	r2,-4(fp)
  800e74:	10c00017 	ldw	r3,0(r2)
  800e78:	e0bffd17 	ldw	r2,-12(fp)
  800e7c:	1085883a 	add	r2,r2,r2
  800e80:	1085883a 	add	r2,r2,r2
  800e84:	1885883a 	add	r2,r3,r2
  800e88:	10800017 	ldw	r2,0(r2)
  800e8c:	11c00617 	ldw	r7,24(r2)
  800e90:	08008780 	call	800878 <distance>
  800e94:	1021883a 	mov	r16,r2
  800e98:	e0bfff17 	ldw	r2,-4(fp)
  800e9c:	10c00017 	ldw	r3,0(r2)
  800ea0:	e0bffe17 	ldw	r2,-8(fp)
  800ea4:	1085883a 	add	r2,r2,r2
  800ea8:	1085883a 	add	r2,r2,r2
  800eac:	1885883a 	add	r2,r3,r2
  800eb0:	10800017 	ldw	r2,0(r2)
  800eb4:	11000217 	ldw	r4,8(r2)
  800eb8:	08024b80 	call	8024b8 <__floatsisf>
  800ebc:	8009883a 	mov	r4,r16
  800ec0:	100b883a 	mov	r5,r2
  800ec4:	08024400 	call	802440 <__lesf2>
  800ec8:	10800050 	cmplti	r2,r2,1
  800ecc:	1000011e 	bne	r2,zero,800ed4 <checkCollision+0xf8>
  800ed0:	00000306 	br	800ee0 <checkCollision+0x104>
					//e->o[i]->collide(e->o[i], e->o[j]);
					printf("collision!\n");
  800ed4:	01002074 	movhi	r4,129
  800ed8:	21146804 	addi	r4,r4,20896
  800edc:	08046540 	call	804654 <puts>
 * check the collision event between each objects in the environment
 */
void checkCollision(struct Env* e) {
	int i, j;
	for(i = 0; i < e->size; i++) {
		for(j = 0; j < e->size; j++) {
  800ee0:	e0bffd17 	ldw	r2,-12(fp)
  800ee4:	10800044 	addi	r2,r2,1
  800ee8:	e0bffd15 	stw	r2,-12(fp)
  800eec:	e0bfff17 	ldw	r2,-4(fp)
  800ef0:	10c00117 	ldw	r3,4(r2)
  800ef4:	e0bffd17 	ldw	r2,-12(fp)
  800ef8:	10ffc216 	blt	r2,r3,800e04 <checkCollision+0x28>
/*
 * check the collision event between each objects in the environment
 */
void checkCollision(struct Env* e) {
	int i, j;
	for(i = 0; i < e->size; i++) {
  800efc:	e0bffe17 	ldw	r2,-8(fp)
  800f00:	10800044 	addi	r2,r2,1
  800f04:	e0bffe15 	stw	r2,-8(fp)
  800f08:	e0bfff17 	ldw	r2,-4(fp)
  800f0c:	10c00117 	ldw	r3,4(r2)
  800f10:	e0bffe17 	ldw	r2,-8(fp)
  800f14:	10ffb916 	blt	r2,r3,800dfc <checkCollision+0x20>
					printf("collision!\n");
				}
			}
		}
	}
}
  800f18:	e037883a 	mov	sp,fp
  800f1c:	dfc00217 	ldw	ra,8(sp)
  800f20:	df000117 	ldw	fp,4(sp)
  800f24:	dc000017 	ldw	r16,0(sp)
  800f28:	dec00304 	addi	sp,sp,12
  800f2c:	f800283a 	ret

00800f30 <displayString>:
/*
 * Helper method that will print the string on the display
 */
void displayString(char* string, int x, int y) {
  800f30:	defffb04 	addi	sp,sp,-20
  800f34:	dfc00415 	stw	ra,16(sp)
  800f38:	df000315 	stw	fp,12(sp)
  800f3c:	df000304 	addi	fp,sp,12
  800f40:	e13ffd15 	stw	r4,-12(fp)
  800f44:	e17ffe15 	stw	r5,-8(fp)
  800f48:	e1bfff15 	stw	r6,-4(fp)
	alt_up_char_buffer_clear(char_buffer);
  800f4c:	d13bf117 	ldw	r4,-4156(gp)
  800f50:	080e38c0 	call	80e38c <alt_up_char_buffer_clear>
	alt_up_char_buffer_string(char_buffer, string, x, y);
  800f54:	d13bf117 	ldw	r4,-4156(gp)
  800f58:	e1bffe17 	ldw	r6,-8(fp)
  800f5c:	e1ffff17 	ldw	r7,-4(fp)
  800f60:	e17ffd17 	ldw	r5,-12(fp)
  800f64:	080e2780 	call	80e278 <alt_up_char_buffer_string>
}
  800f68:	e037883a 	mov	sp,fp
  800f6c:	dfc00117 	ldw	ra,4(sp)
  800f70:	df000017 	ldw	fp,0(sp)
  800f74:	dec00204 	addi	sp,sp,8
  800f78:	f800283a 	ret

00800f7c <main>:
/*
 * Main Game Loop
 */
int main()
{
  800f7c:	deffe104 	addi	sp,sp,-124
  800f80:	dfc01e15 	stw	ra,120(sp)
  800f84:	df001d15 	stw	fp,116(sp)
  800f88:	dc001c15 	stw	r16,112(sp)
  800f8c:	df001c04 	addi	fp,sp,112
	char_buffer  = alt_up_char_buffer_open_dev("/dev/char_drawer");
  800f90:	01002074 	movhi	r4,129
  800f94:	21146b04 	addi	r4,r4,20908
  800f98:	080e1680 	call	80e168 <alt_up_char_buffer_open_dev>
  800f9c:	d0bbf115 	stw	r2,-4156(gp)
	alt_up_char_buffer_init(char_buffer);
  800fa0:	d13bf117 	ldw	r4,-4156(gp)
  800fa4:	080e0e40 	call	80e0e4 <alt_up_char_buffer_init>

	alt_up_sd_card_dev *device_reference = NULL;
  800fa8:	e03ff915 	stw	zero,-28(fp)
	//int* pic;
	int frame = 25;
  800fac:	00800644 	movi	r2,25
  800fb0:	e0bff815 	stw	r2,-32(fp)

	while(!loadSDCard(device_reference)) {
  800fb4:	00001006 	br	800ff8 <main+0x7c>
		displayString("Please insert the SD card to start", frame, 30);
  800fb8:	01002074 	movhi	r4,129
  800fbc:	21147004 	addi	r4,r4,20928
  800fc0:	e17ff817 	ldw	r5,-32(fp)
  800fc4:	01800784 	movi	r6,30
  800fc8:	0800f300 	call	800f30 <displayString>
		frame++;
  800fcc:	e0bff817 	ldw	r2,-32(fp)
  800fd0:	10800044 	addi	r2,r2,1
  800fd4:	e0bff815 	stw	r2,-32(fp)
		if(frame > 60) frame = -5;
  800fd8:	e0bff817 	ldw	r2,-32(fp)
  800fdc:	10800f50 	cmplti	r2,r2,61
  800fe0:	1000021e 	bne	r2,zero,800fec <main+0x70>
  800fe4:	00bffec4 	movi	r2,-5
  800fe8:	e0bff815 	stw	r2,-32(fp)
		usleep(500000);
  800fec:	01000234 	movhi	r4,8
  800ff0:	21284804 	addi	r4,r4,-24288
  800ff4:	080cfd80 	call	80cfd8 <usleep>

	alt_up_sd_card_dev *device_reference = NULL;
	//int* pic;
	int frame = 25;

	while(!loadSDCard(device_reference)) {
  800ff8:	e13ff917 	ldw	r4,-28(fp)
  800ffc:	0800ad40 	call	800ad4 <loadSDCard>
  801000:	1005003a 	cmpeq	r2,r2,zero
  801004:	103fec1e 	bne	r2,zero,800fb8 <main+0x3c>
		displayString("Please insert the SD card to start", frame, 30);
		frame++;
		if(frame > 60) frame = -5;
		usleep(500000);
	}alt_up_char_buffer_clear(char_buffer);
  801008:	d13bf117 	ldw	r4,-4156(gp)
  80100c:	080e38c0 	call	80e38c <alt_up_char_buffer_clear>

	struct GameInfo* info = initGameInfo();
  801010:	08014b80 	call	8014b8 <initGameInfo>
  801014:	e0bff715 	stw	r2,-36(fp)
	//loadSDImage("EARTH.BMP", &pic);
	initVGA();
  801018:	0800a440 	call	800a44 <initVGA>

	alt_alarm alarm;
	struct Env* p = initEnv();
  80101c:	08002000 	call	800200 <initEnv>
  801020:	e0bff615 	stw	r2,-40(fp)

	backgroundImage();
  801024:	0800d980 	call	800d98 <backgroundImage>

  struct animation* a = initAnimation((int*)explode11, 1);
  801028:	01002074 	movhi	r4,129
  80102c:	21176304 	addi	r4,r4,23948
  801030:	01400044 	movi	r5,1
  801034:	08018240 	call	801824 <initAnimation>
  801038:	e0bff515 	stw	r2,-44(fp)
  addImage(a, initAnimation((int*)explode12, 0));
  80103c:	01002074 	movhi	r4,129
  801040:	2117c704 	addi	r4,r4,24348
  801044:	000b883a 	mov	r5,zero
  801048:	08018240 	call	801824 <initAnimation>
  80104c:	100b883a 	mov	r5,r2
  801050:	e13ff517 	ldw	r4,-44(fp)
  801054:	08019500 	call	801950 <addImage>
  addImage(a, initAnimation((int*)explode13, 0));
  801058:	01002074 	movhi	r4,129
  80105c:	21182b04 	addi	r4,r4,24748
  801060:	000b883a 	mov	r5,zero
  801064:	08018240 	call	801824 <initAnimation>
  801068:	100b883a 	mov	r5,r2
  80106c:	e13ff517 	ldw	r4,-44(fp)
  801070:	08019500 	call	801950 <addImage>
  addImage(a, initAnimation((int*)explode14, 0));
  801074:	01002074 	movhi	r4,129
  801078:	21188f04 	addi	r4,r4,25148
  80107c:	000b883a 	mov	r5,zero
  801080:	08018240 	call	801824 <initAnimation>
  801084:	100b883a 	mov	r5,r2
  801088:	e13ff517 	ldw	r4,-44(fp)
  80108c:	08019500 	call	801950 <addImage>
  struct Object *tower = initObject(100, 100, 10, a);
  801090:	01001904 	movi	r4,100
  801094:	01401904 	movi	r5,100
  801098:	01800284 	movi	r6,10
  80109c:	e1fff517 	ldw	r7,-44(fp)
  8010a0:	08015280 	call	801528 <initObject>
  8010a4:	e0bff415 	stw	r2,-48(fp)

  struct animation* b = initAnimation((int*)pacman01, 1);
  8010a8:	01002074 	movhi	r4,129
  8010ac:	2118f304 	addi	r4,r4,25548
  8010b0:	01400044 	movi	r5,1
  8010b4:	08018240 	call	801824 <initAnimation>
  8010b8:	e0bff315 	stw	r2,-52(fp)
  addImage(b, initAnimation((int*)pacman02, 0));
  8010bc:	01002074 	movhi	r4,129
  8010c0:	21195704 	addi	r4,r4,25948
  8010c4:	000b883a 	mov	r5,zero
  8010c8:	08018240 	call	801824 <initAnimation>
  8010cc:	100b883a 	mov	r5,r2
  8010d0:	e13ff317 	ldw	r4,-52(fp)
  8010d4:	08019500 	call	801950 <addImage>
  addImage(b, initAnimation((int*)pacman03, 0));
  8010d8:	01002074 	movhi	r4,129
  8010dc:	2119bb04 	addi	r4,r4,26348
  8010e0:	000b883a 	mov	r5,zero
  8010e4:	08018240 	call	801824 <initAnimation>
  8010e8:	100b883a 	mov	r5,r2
  8010ec:	e13ff317 	ldw	r4,-52(fp)
  8010f0:	08019500 	call	801950 <addImage>
  addImage(b, initAnimation((int*)pacman04, 0));
  8010f4:	01002074 	movhi	r4,129
  8010f8:	211a1f04 	addi	r4,r4,26748
  8010fc:	000b883a 	mov	r5,zero
  801100:	08018240 	call	801824 <initAnimation>
  801104:	100b883a 	mov	r5,r2
  801108:	e13ff317 	ldw	r4,-52(fp)
  80110c:	08019500 	call	801950 <addImage>
  struct Object *face = initObject(160, 120, 10, b);
  801110:	01002804 	movi	r4,160
  801114:	01401e04 	movi	r5,120
  801118:	01800284 	movi	r6,10
  80111c:	e1fff317 	ldw	r7,-52(fp)
  801120:	08015280 	call	801528 <initObject>
  801124:	e0bff215 	stw	r2,-56(fp)

  struct animation* c = initAnimation((int*)explode11, 1);
  801128:	01002074 	movhi	r4,129
  80112c:	21176304 	addi	r4,r4,23948
  801130:	01400044 	movi	r5,1
  801134:	08018240 	call	801824 <initAnimation>
  801138:	e0bff115 	stw	r2,-60(fp)
  addImage(c, initAnimation((int*)explode12, 0));
  80113c:	01002074 	movhi	r4,129
  801140:	2117c704 	addi	r4,r4,24348
  801144:	000b883a 	mov	r5,zero
  801148:	08018240 	call	801824 <initAnimation>
  80114c:	100b883a 	mov	r5,r2
  801150:	e13ff117 	ldw	r4,-60(fp)
  801154:	08019500 	call	801950 <addImage>
  addImage(c, initAnimation((int*)explode13, 0));
  801158:	01002074 	movhi	r4,129
  80115c:	21182b04 	addi	r4,r4,24748
  801160:	000b883a 	mov	r5,zero
  801164:	08018240 	call	801824 <initAnimation>
  801168:	100b883a 	mov	r5,r2
  80116c:	e13ff117 	ldw	r4,-60(fp)
  801170:	08019500 	call	801950 <addImage>
  addImage(c, initAnimation((int*)explode14, 0));
  801174:	01002074 	movhi	r4,129
  801178:	21188f04 	addi	r4,r4,25148
  80117c:	000b883a 	mov	r5,zero
  801180:	08018240 	call	801824 <initAnimation>
  801184:	100b883a 	mov	r5,r2
  801188:	e13ff117 	ldw	r4,-60(fp)
  80118c:	08019500 	call	801950 <addImage>
  struct Object *ani = initObject(150, 50, 10, c);
  801190:	01002584 	movi	r4,150
  801194:	01400c84 	movi	r5,50
  801198:	01800284 	movi	r6,10
  80119c:	e1fff117 	ldw	r7,-60(fp)
  8011a0:	08015280 	call	801528 <initObject>
  8011a4:	e0bff015 	stw	r2,-64(fp)

  struct animation* explode = initAnimation((int*)explode01, 1);
  8011a8:	01002074 	movhi	r4,129
  8011ac:	2116ff04 	addi	r4,r4,23548
  8011b0:	01400044 	movi	r5,1
  8011b4:	08018240 	call	801824 <initAnimation>
  8011b8:	e0bfef15 	stw	r2,-68(fp)
  addImage(explode, initAnimation((int*)explode02, 0));
  8011bc:	01002074 	movhi	r4,129
  8011c0:	21169b04 	addi	r4,r4,23148
  8011c4:	000b883a 	mov	r5,zero
  8011c8:	08018240 	call	801824 <initAnimation>
  8011cc:	100b883a 	mov	r5,r2
  8011d0:	e13fef17 	ldw	r4,-68(fp)
  8011d4:	08019500 	call	801950 <addImage>
  addImage(explode, initAnimation((int*)explode03, 0));
  8011d8:	01002074 	movhi	r4,129
  8011dc:	21163704 	addi	r4,r4,22748
  8011e0:	000b883a 	mov	r5,zero
  8011e4:	08018240 	call	801824 <initAnimation>
  8011e8:	100b883a 	mov	r5,r2
  8011ec:	e13fef17 	ldw	r4,-68(fp)
  8011f0:	08019500 	call	801950 <addImage>
  addImage(explode, initAnimation((int*)explode04, 0));
  8011f4:	01002074 	movhi	r4,129
  8011f8:	2115d304 	addi	r4,r4,22348
  8011fc:	000b883a 	mov	r5,zero
  801200:	08018240 	call	801824 <initAnimation>
  801204:	100b883a 	mov	r5,r2
  801208:	e13fef17 	ldw	r4,-68(fp)
  80120c:	08019500 	call	801950 <addImage>
  addImage(explode, initAnimation((int*)explode05, 0));
  801210:	01002074 	movhi	r4,129
  801214:	21156f04 	addi	r4,r4,21948
  801218:	000b883a 	mov	r5,zero
  80121c:	08018240 	call	801824 <initAnimation>
  801220:	100b883a 	mov	r5,r2
  801224:	e13fef17 	ldw	r4,-68(fp)
  801228:	08019500 	call	801950 <addImage>
  struct Object *explosion = initObject(60, 150, 10, explode);
  80122c:	01000f04 	movi	r4,60
  801230:	01402584 	movi	r5,150
  801234:	01800284 	movi	r6,10
  801238:	e1ffef17 	ldw	r7,-68(fp)
  80123c:	08015280 	call	801528 <initObject>
  801240:	e0bfee15 	stw	r2,-72(fp)


	struct animation* starAnimation = initAnimation((int*)star, 1);
  801244:	d1200004 	addi	r4,gp,-32768
  801248:	01400044 	movi	r5,1
  80124c:	08018240 	call	801824 <initAnimation>
  801250:	e0bfed15 	stw	r2,-76(fp)
	struct Object* star = initObject(100, 150, 1, starAnimation);
  801254:	01001904 	movi	r4,100
  801258:	01402584 	movi	r5,150
  80125c:	01800044 	movi	r6,1
  801260:	e1ffed17 	ldw	r7,-76(fp)
  801264:	08015280 	call	801528 <initObject>
  801268:	e0bfec15 	stw	r2,-80(fp)
	addToEnv(p, star);
  80126c:	e13ff617 	ldw	r4,-40(fp)
  801270:	e17fec17 	ldw	r5,-80(fp)
  801274:	080026c0 	call	80026c <addToEnv>

	struct animation* starAnimation1 = initAnimation((int*)explode01, 1);
  801278:	01002074 	movhi	r4,129
  80127c:	2116ff04 	addi	r4,r4,23548
  801280:	01400044 	movi	r5,1
  801284:	08018240 	call	801824 <initAnimation>
  801288:	e0bfeb15 	stw	r2,-84(fp)
	addImage(starAnimation1, initAnimation((int*)explode02, 0));
  80128c:	01002074 	movhi	r4,129
  801290:	21169b04 	addi	r4,r4,23148
  801294:	000b883a 	mov	r5,zero
  801298:	08018240 	call	801824 <initAnimation>
  80129c:	100b883a 	mov	r5,r2
  8012a0:	e13feb17 	ldw	r4,-84(fp)
  8012a4:	08019500 	call	801950 <addImage>
		struct Object* star1 = initObject(150, 180, 10, starAnimation1);
  8012a8:	01002584 	movi	r4,150
  8012ac:	01402d04 	movi	r5,180
  8012b0:	01800284 	movi	r6,10
  8012b4:	e1ffeb17 	ldw	r7,-84(fp)
  8012b8:	08015280 	call	801528 <initObject>
  8012bc:	e0bfea15 	stw	r2,-88(fp)
		addToEnv(p, star1);
  8012c0:	e13ff617 	ldw	r4,-40(fp)
  8012c4:	e17fea17 	ldw	r5,-88(fp)
  8012c8:	080026c0 	call	80026c <addToEnv>

  addToEnv(p, explosion);
  8012cc:	e13ff617 	ldw	r4,-40(fp)
  8012d0:	e17fee17 	ldw	r5,-72(fp)
  8012d4:	080026c0 	call	80026c <addToEnv>
  addToEnv(p, tower);
  8012d8:	e13ff617 	ldw	r4,-40(fp)
  8012dc:	e17ff417 	ldw	r5,-48(fp)
  8012e0:	080026c0 	call	80026c <addToEnv>
  addToEnv(p, face);
  8012e4:	e13ff617 	ldw	r4,-40(fp)
  8012e8:	e17ff217 	ldw	r5,-56(fp)
  8012ec:	080026c0 	call	80026c <addToEnv>
  addToEnv(p, ani);
  8012f0:	e13ff617 	ldw	r4,-40(fp)
  8012f4:	e17ff017 	ldw	r5,-64(fp)
  8012f8:	080026c0 	call	80026c <addToEnv>

  alt_up_pixel_buffer_dma_draw_box(pixel_buffer, 250, 0, 320, 240, 0x7BEF, 0);
  8012fc:	d13bf217 	ldw	r4,-4152(gp)
  801300:	00803c04 	movi	r2,240
  801304:	d8800015 	stw	r2,0(sp)
  801308:	009efbc4 	movi	r2,31727
  80130c:	d8800115 	stw	r2,4(sp)
  801310:	d8000215 	stw	zero,8(sp)
  801314:	01403e84 	movi	r5,250
  801318:	000d883a 	mov	r6,zero
  80131c:	01c05004 	movi	r7,320
  801320:	080e8100 	call	80e810 <alt_up_pixel_buffer_dma_draw_box>
  alt_up_pixel_buffer_dma_draw_box(pixel_buffer, 253, 3, 317, 237, 0xBDF7, 0);
  801324:	d13bf217 	ldw	r4,-4152(gp)
  801328:	00803b44 	movi	r2,237
  80132c:	d8800015 	stw	r2,0(sp)
  801330:	00af7dd4 	movui	r2,48631
  801334:	d8800115 	stw	r2,4(sp)
  801338:	d8000215 	stw	zero,8(sp)
  80133c:	01403f44 	movi	r5,253
  801340:	018000c4 	movi	r6,3
  801344:	01c04f44 	movi	r7,317
  801348:	080e8100 	call	80e810 <alt_up_pixel_buffer_dma_draw_box>
  struct Frame* scoreBoard = initFrame(255, 5, 315, 20, 1);
  80134c:	00800044 	movi	r2,1
  801350:	d8800015 	stw	r2,0(sp)
  801354:	01003fc4 	movi	r4,255
  801358:	01400144 	movi	r5,5
  80135c:	01804ec4 	movi	r6,315
  801360:	01c00504 	movi	r7,20
  801364:	08003b00 	call	8003b0 <initFrame>
  801368:	e0bfe915 	stw	r2,-92(fp)
  addToEnv(p, scoreBoard->super);
  80136c:	e0bfe917 	ldw	r2,-92(fp)
  801370:	11400417 	ldw	r5,16(r2)
  801374:	e13ff617 	ldw	r4,-40(fp)
  801378:	080026c0 	call	80026c <addToEnv>
  updateScoreFrame(scoreBoard, info);
  80137c:	e13fe917 	ldw	r4,-92(fp)
  801380:	e17ff717 	ldw	r5,-36(fp)
  801384:	08005980 	call	800598 <updateScoreFrame>

  struct Frame* statusBoard = initFrame(255, 180, 315, 235, 3);
  801388:	008000c4 	movi	r2,3
  80138c:	d8800015 	stw	r2,0(sp)
  801390:	01003fc4 	movi	r4,255
  801394:	01402d04 	movi	r5,180
  801398:	01804ec4 	movi	r6,315
  80139c:	01c03ac4 	movi	r7,235
  8013a0:	08003b00 	call	8003b0 <initFrame>
  8013a4:	e0bfe815 	stw	r2,-96(fp)
  addToEnv(p, statusBoard->super);
  8013a8:	e0bfe817 	ldw	r2,-96(fp)
  8013ac:	11400417 	ldw	r5,16(r2)
  8013b0:	e13ff617 	ldw	r4,-40(fp)
  8013b4:	080026c0 	call	80026c <addToEnv>
  updateStatusFrame(statusBoard, "Warning!! Pacman is approaching!!!");
  8013b8:	e13fe817 	ldw	r4,-96(fp)
  8013bc:	01402074 	movhi	r5,129
  8013c0:	29547904 	addi	r5,r5,20964
  8013c4:	08005f00 	call	8005f0 <updateStatusFrame>
  8013c8:	008020b4 	movhi	r2,130
  8013cc:	108d3904 	addi	r2,r2,13540
  8013d0:	10800017 	ldw	r2,0(r2)
  8013d4:	100b883a 	mov	r5,r2

  alt_alarm_start (&alarm,alt_ticks_per_second(),my_alarm_callback,(void*)p);
  8013d8:	e13ffa04 	addi	r4,fp,-24
  8013dc:	01802034 	movhi	r6,128
  8013e0:	31824704 	addi	r6,r6,2332
  8013e4:	e1fff617 	ldw	r7,-40(fp)
  8013e8:	080c3800 	call	80c380 <alt_alarm_start>
  int k = 0;
  8013ec:	e03fe715 	stw	zero,-100(fp)
  while(1) {
	  //background stars
	  setXY(star, rand()%240, rand()%240);
  8013f0:	08046840 	call	804684 <rand>
  8013f4:	1009883a 	mov	r4,r2
  8013f8:	01403c04 	movi	r5,240
  8013fc:	08034a40 	call	8034a4 <__modsi3>
  801400:	1021883a 	mov	r16,r2
  801404:	08046840 	call	804684 <rand>
  801408:	1009883a 	mov	r4,r2
  80140c:	01403c04 	movi	r5,240
  801410:	08034a40 	call	8034a4 <__modsi3>
  801414:	100d883a 	mov	r6,r2
  801418:	e13fec17 	ldw	r4,-80(fp)
  80141c:	800b883a 	mov	r5,r16
  801420:	08017740 	call	801774 <setXY>

	  checkCollision(p);
  801424:	e13ff617 	ldw	r4,-40(fp)
  801428:	0800ddc0 	call	800ddc <checkCollision>

	  //Game Processing
	  setXY(face, face->x+1, face->y);
  80142c:	e0bff217 	ldw	r2,-56(fp)
  801430:	10800017 	ldw	r2,0(r2)
  801434:	11400044 	addi	r5,r2,1
  801438:	e0bff217 	ldw	r2,-56(fp)
  80143c:	11800117 	ldw	r6,4(r2)
  801440:	e13ff217 	ldw	r4,-56(fp)
  801444:	08017740 	call	801774 <setXY>
	  if(face->x > 240) face->x = 10;
  801448:	e0bff217 	ldw	r2,-56(fp)
  80144c:	10800017 	ldw	r2,0(r2)
  801450:	10803c50 	cmplti	r2,r2,241
  801454:	1000031e 	bne	r2,zero,801464 <main+0x4e8>
  801458:	e0fff217 	ldw	r3,-56(fp)
  80145c:	00800284 	movi	r2,10
  801460:	18800015 	stw	r2,0(r3)
	  if(k == 200) removeFromEnv(p, tower);
  801464:	e0bfe717 	ldw	r2,-100(fp)
  801468:	10803218 	cmpnei	r2,r2,200
  80146c:	1000031e 	bne	r2,zero,80147c <main+0x500>
  801470:	e13ff617 	ldw	r4,-40(fp)
  801474:	e17ff417 	ldw	r5,-48(fp)
  801478:	08002c80 	call	8002c8 <removeFromEnv>
	  info->score++;
  80147c:	e0bff717 	ldw	r2,-36(fp)
  801480:	10800017 	ldw	r2,0(r2)
  801484:	10c00044 	addi	r3,r2,1
  801488:	e0bff717 	ldw	r2,-36(fp)
  80148c:	10c00015 	stw	r3,0(r2)
	  updateScoreFrame(scoreBoard, info);
  801490:	e13fe917 	ldw	r4,-92(fp)
  801494:	e17ff717 	ldw	r5,-36(fp)
  801498:	08005980 	call	800598 <updateScoreFrame>
	  //nothing running right now..thus slowing down the game speed a bit
	  usleep(100000);
  80149c:	010000b4 	movhi	r4,2
  8014a0:	2121a804 	addi	r4,r4,-31072
  8014a4:	080cfd80 	call	80cfd8 <usleep>
	  k++;
  8014a8:	e0bfe717 	ldw	r2,-100(fp)
  8014ac:	10800044 	addi	r2,r2,1
  8014b0:	e0bfe715 	stw	r2,-100(fp)
  }
  8014b4:	003fce06 	br	8013f0 <main+0x474>

008014b8 <initGameInfo>:
 *      Author: Danny
 */

#include "GameInfo.h"

struct GameInfo* initGameInfo() {
  8014b8:	defffd04 	addi	sp,sp,-12
  8014bc:	dfc00215 	stw	ra,8(sp)
  8014c0:	df000115 	stw	fp,4(sp)
  8014c4:	df000104 	addi	fp,sp,4
	struct GameInfo* g = (struct GameInfo*)malloc(sizeof(struct GameInfo));
  8014c8:	01000504 	movi	r4,20
  8014cc:	0803e600 	call	803e60 <malloc>
  8014d0:	e0bfff15 	stw	r2,-4(fp)
	g->score = g->gameLvl = 0;
  8014d4:	e0bfff17 	ldw	r2,-4(fp)
  8014d8:	10000415 	stw	zero,16(r2)
  8014dc:	e0bfff17 	ldw	r2,-4(fp)
  8014e0:	10c00417 	ldw	r3,16(r2)
  8014e4:	e0bfff17 	ldw	r2,-4(fp)
  8014e8:	10c00015 	stw	r3,0(r2)
	return g;
  8014ec:	e0bfff17 	ldw	r2,-4(fp)
}
  8014f0:	e037883a 	mov	sp,fp
  8014f4:	dfc00117 	ldw	ra,4(sp)
  8014f8:	df000017 	ldw	fp,0(sp)
  8014fc:	dec00204 	addi	sp,sp,8
  801500:	f800283a 	ret

00801504 <loadGameInfo>:

void loadGameInfo(struct GameInfo* g, char* filename) {
  801504:	defffd04 	addi	sp,sp,-12
  801508:	df000215 	stw	fp,8(sp)
  80150c:	df000204 	addi	fp,sp,8
  801510:	e13ffe15 	stw	r4,-8(fp)
  801514:	e17fff15 	stw	r5,-4(fp)

}
  801518:	e037883a 	mov	sp,fp
  80151c:	df000017 	ldw	fp,0(sp)
  801520:	dec00104 	addi	sp,sp,4
  801524:	f800283a 	ret

00801528 <initObject>:
 *  Created on: 2013-01-17
 *      Author: Danny
 */

#include "Object.h"
struct Object* initObject(int pos_x, int pos_y, int size, struct animation* s1) {
  801528:	defff904 	addi	sp,sp,-28
  80152c:	dfc00615 	stw	ra,24(sp)
  801530:	df000515 	stw	fp,20(sp)
  801534:	df000504 	addi	fp,sp,20
  801538:	e13ffc15 	stw	r4,-16(fp)
  80153c:	e17ffd15 	stw	r5,-12(fp)
  801540:	e1bffe15 	stw	r6,-8(fp)
  801544:	e1ffff15 	stw	r7,-4(fp)
	struct Object* this = (struct Object*)malloc(sizeof(struct Object));
  801548:	01000f04 	movi	r4,60
  80154c:	0803e600 	call	803e60 <malloc>
  801550:	e0bffb15 	stw	r2,-20(fp)
	this->x = pos_x;
  801554:	e0fffb17 	ldw	r3,-20(fp)
  801558:	e0bffc17 	ldw	r2,-16(fp)
  80155c:	18800015 	stw	r2,0(r3)
	this->y = pos_y;
  801560:	e0fffb17 	ldw	r3,-20(fp)
  801564:	e0bffd17 	ldw	r2,-12(fp)
  801568:	18800115 	stw	r2,4(r3)
	this->prev_x = pos_x;
  80156c:	e0fffb17 	ldw	r3,-20(fp)
  801570:	e0bffc17 	ldw	r2,-16(fp)
  801574:	18800315 	stw	r2,12(r3)
	this->prev_y = pos_y;
  801578:	e0fffb17 	ldw	r3,-20(fp)
  80157c:	e0bffd17 	ldw	r2,-12(fp)
  801580:	18800415 	stw	r2,16(r3)
	this->center_x = pos_x + size/2;
  801584:	e0fffe17 	ldw	r3,-8(fp)
  801588:	1804d7fa 	srli	r2,r3,31
  80158c:	10c5883a 	add	r2,r2,r3
  801590:	1005d07a 	srai	r2,r2,1
  801594:	1007883a 	mov	r3,r2
  801598:	e0bffc17 	ldw	r2,-16(fp)
  80159c:	1887883a 	add	r3,r3,r2
  8015a0:	e0bffb17 	ldw	r2,-20(fp)
  8015a4:	10c00515 	stw	r3,20(r2)
	this->center_y = pos_y + size/2;
  8015a8:	e0fffe17 	ldw	r3,-8(fp)
  8015ac:	1804d7fa 	srli	r2,r3,31
  8015b0:	10c5883a 	add	r2,r2,r3
  8015b4:	1005d07a 	srai	r2,r2,1
  8015b8:	1007883a 	mov	r3,r2
  8015bc:	e0bffd17 	ldw	r2,-12(fp)
  8015c0:	1887883a 	add	r3,r3,r2
  8015c4:	e0bffb17 	ldw	r2,-20(fp)
  8015c8:	10c00615 	stw	r3,24(r2)
	this->scale = size;
  8015cc:	e0fffb17 	ldw	r3,-20(fp)
  8015d0:	e0bffe17 	ldw	r2,-8(fp)
  8015d4:	18800215 	stw	r2,8(r3)
	this->currImg = s1;
  8015d8:	e0fffb17 	ldw	r3,-20(fp)
  8015dc:	e0bfff17 	ldw	r2,-4(fp)
  8015e0:	18800815 	stw	r2,32(r3)
	this->stats[0] = s1;
  8015e4:	e0fffb17 	ldw	r3,-20(fp)
  8015e8:	e0bfff17 	ldw	r2,-4(fp)
  8015ec:	18800915 	stw	r2,36(r3)
	this->total_stats = 1;
  8015f0:	e0fffb17 	ldw	r3,-20(fp)
  8015f4:	00800044 	movi	r2,1
  8015f8:	18800715 	stw	r2,28(r3)
	this->animate = animated;
  8015fc:	e0fffb17 	ldw	r3,-20(fp)
  801600:	00802034 	movhi	r2,128
  801604:	1086dc04 	addi	r2,r2,7024
  801608:	18800d15 	stw	r2,52(r3)
	return this;
  80160c:	e0bffb17 	ldw	r2,-20(fp)
}
  801610:	e037883a 	mov	sp,fp
  801614:	dfc00117 	ldw	ra,4(sp)
  801618:	df000017 	ldw	fp,0(sp)
  80161c:	dec00204 	addi	sp,sp,8
  801620:	f800283a 	ret

00801624 <killObject>:

void killObject(struct Object* this) {
  801624:	defffc04 	addi	sp,sp,-16
  801628:	dfc00315 	stw	ra,12(sp)
  80162c:	df000215 	stw	fp,8(sp)
  801630:	df000204 	addi	fp,sp,8
  801634:	e13fff15 	stw	r4,-4(fp)
	int i;
	this->currImg = NULL;
  801638:	e0bfff17 	ldw	r2,-4(fp)
  80163c:	10000815 	stw	zero,32(r2)
	this->animate = NULL;
  801640:	e0bfff17 	ldw	r2,-4(fp)
  801644:	10000d15 	stw	zero,52(r2)
	for(i = 0; i < this->total_stats; i++) {
  801648:	e03ffe15 	stw	zero,-8(fp)
  80164c:	00000d06 	br	801684 <killObject+0x60>
		killAnimation(this->stats[i], this->scale);
  801650:	e0bffe17 	ldw	r2,-8(fp)
  801654:	e0ffff17 	ldw	r3,-4(fp)
  801658:	1085883a 	add	r2,r2,r2
  80165c:	1085883a 	add	r2,r2,r2
  801660:	10c5883a 	add	r2,r2,r3
  801664:	10800904 	addi	r2,r2,36
  801668:	11000017 	ldw	r4,0(r2)
  80166c:	e0bfff17 	ldw	r2,-4(fp)
  801670:	11400217 	ldw	r5,8(r2)
  801674:	08018cc0 	call	8018cc <killAnimation>

void killObject(struct Object* this) {
	int i;
	this->currImg = NULL;
	this->animate = NULL;
	for(i = 0; i < this->total_stats; i++) {
  801678:	e0bffe17 	ldw	r2,-8(fp)
  80167c:	10800044 	addi	r2,r2,1
  801680:	e0bffe15 	stw	r2,-8(fp)
  801684:	e0bfff17 	ldw	r2,-4(fp)
  801688:	10c00717 	ldw	r3,28(r2)
  80168c:	e0bffe17 	ldw	r2,-8(fp)
  801690:	10ffef16 	blt	r2,r3,801650 <killObject+0x2c>
		killAnimation(this->stats[i], this->scale);
	}
	cleanDrawing(pixel_buffer, this->x, this->y, this->scale);
  801694:	d13bf217 	ldw	r4,-4152(gp)
  801698:	e0bfff17 	ldw	r2,-4(fp)
  80169c:	11400017 	ldw	r5,0(r2)
  8016a0:	e0bfff17 	ldw	r2,-4(fp)
  8016a4:	11800117 	ldw	r6,4(r2)
  8016a8:	e0bfff17 	ldw	r2,-4(fp)
  8016ac:	11c00217 	ldw	r7,8(r2)
  8016b0:	0801ab80 	call	801ab8 <cleanDrawing>
	free(this);
  8016b4:	e13fff17 	ldw	r4,-4(fp)
  8016b8:	0803e4c0 	call	803e4c <free>
}
  8016bc:	e037883a 	mov	sp,fp
  8016c0:	dfc00117 	ldw	ra,4(sp)
  8016c4:	df000017 	ldw	fp,0(sp)
  8016c8:	dec00204 	addi	sp,sp,8
  8016cc:	f800283a 	ret

008016d0 <setStats>:

void setStats(struct Object* this, int stat) {
  8016d0:	defffd04 	addi	sp,sp,-12
  8016d4:	df000215 	stw	fp,8(sp)
  8016d8:	df000204 	addi	fp,sp,8
  8016dc:	e13ffe15 	stw	r4,-8(fp)
  8016e0:	e17fff15 	stw	r5,-4(fp)
	this->currImg = this->stats[stat];
  8016e4:	e0bfff17 	ldw	r2,-4(fp)
  8016e8:	e0fffe17 	ldw	r3,-8(fp)
  8016ec:	1085883a 	add	r2,r2,r2
  8016f0:	1085883a 	add	r2,r2,r2
  8016f4:	10c5883a 	add	r2,r2,r3
  8016f8:	10800904 	addi	r2,r2,36
  8016fc:	10c00017 	ldw	r3,0(r2)
  801700:	e0bffe17 	ldw	r2,-8(fp)
  801704:	10c00815 	stw	r3,32(r2)
}
  801708:	e037883a 	mov	sp,fp
  80170c:	df000017 	ldw	fp,0(sp)
  801710:	dec00104 	addi	sp,sp,4
  801714:	f800283a 	ret

00801718 <addStats>:
void addStats(struct Object* this, struct animation* s) {
  801718:	defffd04 	addi	sp,sp,-12
  80171c:	df000215 	stw	fp,8(sp)
  801720:	df000204 	addi	fp,sp,8
  801724:	e13ffe15 	stw	r4,-8(fp)
  801728:	e17fff15 	stw	r5,-4(fp)
	this->stats[this->total_stats] = s;
  80172c:	e0bffe17 	ldw	r2,-8(fp)
  801730:	10800717 	ldw	r2,28(r2)
  801734:	e0fffe17 	ldw	r3,-8(fp)
  801738:	1085883a 	add	r2,r2,r2
  80173c:	1085883a 	add	r2,r2,r2
  801740:	10c5883a 	add	r2,r2,r3
  801744:	10c00904 	addi	r3,r2,36
  801748:	e0bfff17 	ldw	r2,-4(fp)
  80174c:	18800015 	stw	r2,0(r3)
	this->total_stats++;
  801750:	e0bffe17 	ldw	r2,-8(fp)
  801754:	10800717 	ldw	r2,28(r2)
  801758:	10c00044 	addi	r3,r2,1
  80175c:	e0bffe17 	ldw	r2,-8(fp)
  801760:	10c00715 	stw	r3,28(r2)
}
  801764:	e037883a 	mov	sp,fp
  801768:	df000017 	ldw	fp,0(sp)
  80176c:	dec00104 	addi	sp,sp,4
  801770:	f800283a 	ret

00801774 <setXY>:

void setXY(struct Object* o, int pos_x, int pos_y) {
  801774:	defffc04 	addi	sp,sp,-16
  801778:	df000315 	stw	fp,12(sp)
  80177c:	df000304 	addi	fp,sp,12
  801780:	e13ffd15 	stw	r4,-12(fp)
  801784:	e17ffe15 	stw	r5,-8(fp)
  801788:	e1bfff15 	stw	r6,-4(fp)
	o->prev_x = o->x;
  80178c:	e0bffd17 	ldw	r2,-12(fp)
  801790:	10c00017 	ldw	r3,0(r2)
  801794:	e0bffd17 	ldw	r2,-12(fp)
  801798:	10c00315 	stw	r3,12(r2)
	o->prev_y = o->y;
  80179c:	e0bffd17 	ldw	r2,-12(fp)
  8017a0:	10c00117 	ldw	r3,4(r2)
  8017a4:	e0bffd17 	ldw	r2,-12(fp)
  8017a8:	10c00415 	stw	r3,16(r2)
	o->x = pos_x;
  8017ac:	e0fffd17 	ldw	r3,-12(fp)
  8017b0:	e0bffe17 	ldw	r2,-8(fp)
  8017b4:	18800015 	stw	r2,0(r3)
	o->y = pos_y;
  8017b8:	e0fffd17 	ldw	r3,-12(fp)
  8017bc:	e0bfff17 	ldw	r2,-4(fp)
  8017c0:	18800115 	stw	r2,4(r3)
	o->center_x = pos_x + o->scale/2;
  8017c4:	e0bffd17 	ldw	r2,-12(fp)
  8017c8:	10c00217 	ldw	r3,8(r2)
  8017cc:	1804d7fa 	srli	r2,r3,31
  8017d0:	10c5883a 	add	r2,r2,r3
  8017d4:	1005d07a 	srai	r2,r2,1
  8017d8:	1007883a 	mov	r3,r2
  8017dc:	e0bffe17 	ldw	r2,-8(fp)
  8017e0:	1887883a 	add	r3,r3,r2
  8017e4:	e0bffd17 	ldw	r2,-12(fp)
  8017e8:	10c00515 	stw	r3,20(r2)
	o->center_y = pos_y + o->scale/2;
  8017ec:	e0bffd17 	ldw	r2,-12(fp)
  8017f0:	10c00217 	ldw	r3,8(r2)
  8017f4:	1804d7fa 	srli	r2,r3,31
  8017f8:	10c5883a 	add	r2,r2,r3
  8017fc:	1005d07a 	srai	r2,r2,1
  801800:	1007883a 	mov	r3,r2
  801804:	e0bfff17 	ldw	r2,-4(fp)
  801808:	1887883a 	add	r3,r3,r2
  80180c:	e0bffd17 	ldw	r2,-12(fp)
  801810:	10c00615 	stw	r3,24(r2)
}
  801814:	e037883a 	mov	sp,fp
  801818:	df000017 	ldw	fp,0(sp)
  80181c:	dec00104 	addi	sp,sp,4
  801820:	f800283a 	ret

00801824 <initAnimation>:
 *      Author: Danny
 */

#include "animation.h"

struct animation* initAnimation(int* img, int start) {
  801824:	defffb04 	addi	sp,sp,-20
  801828:	dfc00415 	stw	ra,16(sp)
  80182c:	df000315 	stw	fp,12(sp)
  801830:	df000304 	addi	fp,sp,12
  801834:	e13ffe15 	stw	r4,-8(fp)
  801838:	e17fff15 	stw	r5,-4(fp)
	struct animation* a = (struct animation*)malloc(sizeof(struct animation));
  80183c:	01000704 	movi	r4,28
  801840:	0803e600 	call	803e60 <malloc>
  801844:	e0bffd15 	stw	r2,-12(fp)
	a->prev_x = a->prev_y = 0;
  801848:	e0bffd17 	ldw	r2,-12(fp)
  80184c:	10000215 	stw	zero,8(r2)
  801850:	e0bffd17 	ldw	r2,-12(fp)
  801854:	10c00217 	ldw	r3,8(r2)
  801858:	e0bffd17 	ldw	r2,-12(fp)
  80185c:	10c00115 	stw	r3,4(r2)
	a->image = img;
  801860:	e0fffd17 	ldw	r3,-12(fp)
  801864:	e0bffe17 	ldw	r2,-8(fp)
  801868:	18800015 	stw	r2,0(r3)
	a->prev = a;
  80186c:	e0fffd17 	ldw	r3,-12(fp)
  801870:	e0bffd17 	ldw	r2,-12(fp)
  801874:	18800315 	stw	r2,12(r3)
	a->next = a;
  801878:	e0fffd17 	ldw	r3,-12(fp)
  80187c:	e0bffd17 	ldw	r2,-12(fp)
  801880:	18800415 	stw	r2,16(r3)
	a->end = a;
  801884:	e0fffd17 	ldw	r3,-12(fp)
  801888:	e0bffd17 	ldw	r2,-12(fp)
  80188c:	18800615 	stw	r2,24(r3)
	if(start > 0)
  801890:	e0bfff17 	ldw	r2,-4(fp)
  801894:	10800050 	cmplti	r2,r2,1
  801898:	1000041e 	bne	r2,zero,8018ac <initAnimation+0x88>
		a->first = a;
  80189c:	e0fffd17 	ldw	r3,-12(fp)
  8018a0:	e0bffd17 	ldw	r2,-12(fp)
  8018a4:	18800515 	stw	r2,20(r3)
  8018a8:	00000206 	br	8018b4 <initAnimation+0x90>
	else
		a->first = NULL;
  8018ac:	e0bffd17 	ldw	r2,-12(fp)
  8018b0:	10000515 	stw	zero,20(r2)
	return a;
  8018b4:	e0bffd17 	ldw	r2,-12(fp)
}
  8018b8:	e037883a 	mov	sp,fp
  8018bc:	dfc00117 	ldw	ra,4(sp)
  8018c0:	df000017 	ldw	fp,0(sp)
  8018c4:	dec00204 	addi	sp,sp,8
  8018c8:	f800283a 	ret

008018cc <killAnimation>:

void killAnimation(struct animation* this, int size) {
  8018cc:	defffc04 	addi	sp,sp,-16
  8018d0:	dfc00315 	stw	ra,12(sp)
  8018d4:	df000215 	stw	fp,8(sp)
  8018d8:	df000204 	addi	fp,sp,8
  8018dc:	e13ffe15 	stw	r4,-8(fp)
  8018e0:	e17fff15 	stw	r5,-4(fp)
	if(this->prev != NULL) {
  8018e4:	e0bffe17 	ldw	r2,-8(fp)
  8018e8:	10800317 	ldw	r2,12(r2)
  8018ec:	1005003a 	cmpeq	r2,r2,zero
  8018f0:	1000021e 	bne	r2,zero,8018fc <killAnimation+0x30>
		this->prev = NULL;
  8018f4:	e0bffe17 	ldw	r2,-8(fp)
  8018f8:	10000315 	stw	zero,12(r2)
	}
	//free(this->image); we don't want to free the image since image will be use for other animation
	if(this->end != this)
  8018fc:	e0bffe17 	ldw	r2,-8(fp)
  801900:	10c00617 	ldw	r3,24(r2)
  801904:	e0bffe17 	ldw	r2,-8(fp)
  801908:	18800426 	beq	r3,r2,80191c <killAnimation+0x50>
		killAnimation(this->next, size);
  80190c:	e0bffe17 	ldw	r2,-8(fp)
  801910:	11000417 	ldw	r4,16(r2)
  801914:	e17fff17 	ldw	r5,-4(fp)
  801918:	08018cc0 	call	8018cc <killAnimation>

	this->next = NULL;
  80191c:	e0bffe17 	ldw	r2,-8(fp)
  801920:	10000415 	stw	zero,16(r2)
	this->first = NULL;
  801924:	e0bffe17 	ldw	r2,-8(fp)
  801928:	10000515 	stw	zero,20(r2)
	this->end = NULL;
  80192c:	e0bffe17 	ldw	r2,-8(fp)
  801930:	10000615 	stw	zero,24(r2)
	free(this);
  801934:	e13ffe17 	ldw	r4,-8(fp)
  801938:	0803e4c0 	call	803e4c <free>
}
  80193c:	e037883a 	mov	sp,fp
  801940:	dfc00117 	ldw	ra,4(sp)
  801944:	df000017 	ldw	fp,0(sp)
  801948:	dec00204 	addi	sp,sp,8
  80194c:	f800283a 	ret

00801950 <addImage>:
void addImage(struct animation *curr, struct animation* n) {
  801950:	defffd04 	addi	sp,sp,-12
  801954:	df000215 	stw	fp,8(sp)
  801958:	df000204 	addi	fp,sp,8
  80195c:	e13ffe15 	stw	r4,-8(fp)
  801960:	e17fff15 	stw	r5,-4(fp)
	n->prev = curr->end;
  801964:	e0bffe17 	ldw	r2,-8(fp)
  801968:	10c00617 	ldw	r3,24(r2)
  80196c:	e0bfff17 	ldw	r2,-4(fp)
  801970:	10c00315 	stw	r3,12(r2)
	curr->end->next = n;
  801974:	e0bffe17 	ldw	r2,-8(fp)
  801978:	10c00617 	ldw	r3,24(r2)
  80197c:	e0bfff17 	ldw	r2,-4(fp)
  801980:	18800415 	stw	r2,16(r3)
	curr->end = n;
  801984:	e0fffe17 	ldw	r3,-8(fp)
  801988:	e0bfff17 	ldw	r2,-4(fp)
  80198c:	18800615 	stw	r2,24(r3)
	curr->first->prev = n;
  801990:	e0bffe17 	ldw	r2,-8(fp)
  801994:	10c00517 	ldw	r3,20(r2)
  801998:	e0bfff17 	ldw	r2,-4(fp)
  80199c:	18800315 	stw	r2,12(r3)
	n->first = curr->first;
  8019a0:	e0bffe17 	ldw	r2,-8(fp)
  8019a4:	10c00517 	ldw	r3,20(r2)
  8019a8:	e0bfff17 	ldw	r2,-4(fp)
  8019ac:	10c00515 	stw	r3,20(r2)
	n->next = curr->first;
  8019b0:	e0bffe17 	ldw	r2,-8(fp)
  8019b4:	10c00517 	ldw	r3,20(r2)
  8019b8:	e0bfff17 	ldw	r2,-4(fp)
  8019bc:	10c00415 	stw	r3,16(r2)
}
  8019c0:	e037883a 	mov	sp,fp
  8019c4:	df000017 	ldw	fp,0(sp)
  8019c8:	dec00104 	addi	sp,sp,4
  8019cc:	f800283a 	ret

008019d0 <draw>:

void draw(alt_up_pixel_buffer_dma_dev* pixel_buffer, int pos_x, int pos_y, int* img, int size) {
  8019d0:	defff504 	addi	sp,sp,-44
  8019d4:	dfc00a15 	stw	ra,40(sp)
  8019d8:	df000915 	stw	fp,36(sp)
  8019dc:	df000904 	addi	fp,sp,36
  8019e0:	e13ffc15 	stw	r4,-16(fp)
  8019e4:	e17ffd15 	stw	r5,-12(fp)
  8019e8:	e1bffe15 	stw	r6,-8(fp)
  8019ec:	e1ffff15 	stw	r7,-4(fp)
	int i, j;
	for(i = 0; i < size; i++) {
  8019f0:	e03ffb15 	stw	zero,-20(fp)
  8019f4:	00002806 	br	801a98 <draw+0xc8>
	    for(j = 0; j < size; j++) {
  8019f8:	e03ffa15 	stw	zero,-24(fp)
  8019fc:	00002006 	br	801a80 <draw+0xb0>
	    	alt_up_pixel_buffer_dma_draw_box(pixel_buffer, i+pos_x, j+pos_y, i+pos_x, j+pos_y, *(img + j*size+i), 0);
  801a00:	e0fffb17 	ldw	r3,-20(fp)
  801a04:	e0bffd17 	ldw	r2,-12(fp)
  801a08:	188b883a 	add	r5,r3,r2
  801a0c:	e0fffa17 	ldw	r3,-24(fp)
  801a10:	e0bffe17 	ldw	r2,-8(fp)
  801a14:	188d883a 	add	r6,r3,r2
  801a18:	e0fffb17 	ldw	r3,-20(fp)
  801a1c:	e0bffd17 	ldw	r2,-12(fp)
  801a20:	188f883a 	add	r7,r3,r2
  801a24:	e0fffa17 	ldw	r3,-24(fp)
  801a28:	e0bffe17 	ldw	r2,-8(fp)
  801a2c:	1889883a 	add	r4,r3,r2
  801a30:	e0fffa17 	ldw	r3,-24(fp)
  801a34:	e0800217 	ldw	r2,8(fp)
  801a38:	1885383a 	mul	r2,r3,r2
  801a3c:	1007883a 	mov	r3,r2
  801a40:	e0bffb17 	ldw	r2,-20(fp)
  801a44:	1885883a 	add	r2,r3,r2
  801a48:	1085883a 	add	r2,r2,r2
  801a4c:	1085883a 	add	r2,r2,r2
  801a50:	1007883a 	mov	r3,r2
  801a54:	e0bfff17 	ldw	r2,-4(fp)
  801a58:	1885883a 	add	r2,r3,r2
  801a5c:	10800017 	ldw	r2,0(r2)
  801a60:	d9000015 	stw	r4,0(sp)
  801a64:	d8800115 	stw	r2,4(sp)
  801a68:	d8000215 	stw	zero,8(sp)
  801a6c:	e13ffc17 	ldw	r4,-16(fp)
  801a70:	080e8100 	call	80e810 <alt_up_pixel_buffer_dma_draw_box>
}

void draw(alt_up_pixel_buffer_dma_dev* pixel_buffer, int pos_x, int pos_y, int* img, int size) {
	int i, j;
	for(i = 0; i < size; i++) {
	    for(j = 0; j < size; j++) {
  801a74:	e0bffa17 	ldw	r2,-24(fp)
  801a78:	10800044 	addi	r2,r2,1
  801a7c:	e0bffa15 	stw	r2,-24(fp)
  801a80:	e0fffa17 	ldw	r3,-24(fp)
  801a84:	e0800217 	ldw	r2,8(fp)
  801a88:	18bfdd16 	blt	r3,r2,801a00 <draw+0x30>
	n->next = curr->first;
}

void draw(alt_up_pixel_buffer_dma_dev* pixel_buffer, int pos_x, int pos_y, int* img, int size) {
	int i, j;
	for(i = 0; i < size; i++) {
  801a8c:	e0bffb17 	ldw	r2,-20(fp)
  801a90:	10800044 	addi	r2,r2,1
  801a94:	e0bffb15 	stw	r2,-20(fp)
  801a98:	e0fffb17 	ldw	r3,-20(fp)
  801a9c:	e0800217 	ldw	r2,8(fp)
  801aa0:	18bfd516 	blt	r3,r2,8019f8 <draw+0x28>
	    for(j = 0; j < size; j++) {
	    	alt_up_pixel_buffer_dma_draw_box(pixel_buffer, i+pos_x, j+pos_y, i+pos_x, j+pos_y, *(img + j*size+i), 0);
	    }
	}
}
  801aa4:	e037883a 	mov	sp,fp
  801aa8:	dfc00117 	ldw	ra,4(sp)
  801aac:	df000017 	ldw	fp,0(sp)
  801ab0:	dec00204 	addi	sp,sp,8
  801ab4:	f800283a 	ret

00801ab8 <cleanDrawing>:
void cleanDrawing(alt_up_pixel_buffer_dma_dev* pixel_buffer, int pos_x, int pos_y, int size) {
  801ab8:	defff504 	addi	sp,sp,-44
  801abc:	dfc00a15 	stw	ra,40(sp)
  801ac0:	df000915 	stw	fp,36(sp)
  801ac4:	df000904 	addi	fp,sp,36
  801ac8:	e13ffc15 	stw	r4,-16(fp)
  801acc:	e17ffd15 	stw	r5,-12(fp)
  801ad0:	e1bffe15 	stw	r6,-8(fp)
  801ad4:	e1ffff15 	stw	r7,-4(fp)
	int i, j;
		for(i = 0; i < size; i++) {
  801ad8:	e03ffb15 	stw	zero,-20(fp)
  801adc:	00001c06 	br	801b50 <cleanDrawing+0x98>
		    for(j = 0; j < size; j++) {
  801ae0:	e03ffa15 	stw	zero,-24(fp)
  801ae4:	00001406 	br	801b38 <cleanDrawing+0x80>
		    	alt_up_pixel_buffer_dma_draw_box(pixel_buffer, i+pos_x, j+pos_y, i+pos_x, j+pos_y, 0x0000, 0);
  801ae8:	e0fffb17 	ldw	r3,-20(fp)
  801aec:	e0bffd17 	ldw	r2,-12(fp)
  801af0:	188b883a 	add	r5,r3,r2
  801af4:	e0fffa17 	ldw	r3,-24(fp)
  801af8:	e0bffe17 	ldw	r2,-8(fp)
  801afc:	188d883a 	add	r6,r3,r2
  801b00:	e0fffb17 	ldw	r3,-20(fp)
  801b04:	e0bffd17 	ldw	r2,-12(fp)
  801b08:	188f883a 	add	r7,r3,r2
  801b0c:	e0fffa17 	ldw	r3,-24(fp)
  801b10:	e0bffe17 	ldw	r2,-8(fp)
  801b14:	1885883a 	add	r2,r3,r2
  801b18:	d8800015 	stw	r2,0(sp)
  801b1c:	d8000115 	stw	zero,4(sp)
  801b20:	d8000215 	stw	zero,8(sp)
  801b24:	e13ffc17 	ldw	r4,-16(fp)
  801b28:	080e8100 	call	80e810 <alt_up_pixel_buffer_dma_draw_box>
	}
}
void cleanDrawing(alt_up_pixel_buffer_dma_dev* pixel_buffer, int pos_x, int pos_y, int size) {
	int i, j;
		for(i = 0; i < size; i++) {
		    for(j = 0; j < size; j++) {
  801b2c:	e0bffa17 	ldw	r2,-24(fp)
  801b30:	10800044 	addi	r2,r2,1
  801b34:	e0bffa15 	stw	r2,-24(fp)
  801b38:	e0fffa17 	ldw	r3,-24(fp)
  801b3c:	e0bfff17 	ldw	r2,-4(fp)
  801b40:	18bfe916 	blt	r3,r2,801ae8 <cleanDrawing+0x30>
	    }
	}
}
void cleanDrawing(alt_up_pixel_buffer_dma_dev* pixel_buffer, int pos_x, int pos_y, int size) {
	int i, j;
		for(i = 0; i < size; i++) {
  801b44:	e0bffb17 	ldw	r2,-20(fp)
  801b48:	10800044 	addi	r2,r2,1
  801b4c:	e0bffb15 	stw	r2,-20(fp)
  801b50:	e0fffb17 	ldw	r3,-20(fp)
  801b54:	e0bfff17 	ldw	r2,-4(fp)
  801b58:	18bfe116 	blt	r3,r2,801ae0 <cleanDrawing+0x28>
		    for(j = 0; j < size; j++) {
		    	alt_up_pixel_buffer_dma_draw_box(pixel_buffer, i+pos_x, j+pos_y, i+pos_x, j+pos_y, 0x0000, 0);
		    }
		}
}
  801b5c:	e037883a 	mov	sp,fp
  801b60:	dfc00117 	ldw	ra,4(sp)
  801b64:	df000017 	ldw	fp,0(sp)
  801b68:	dec00204 	addi	sp,sp,8
  801b6c:	f800283a 	ret

00801b70 <animated>:
/*
 * animate the animation.  Assume the image is size x size matrix.
 * Draw the next image in next round if isForward == 1, otherwise draw the previous image in next round.
 */
void animated(alt_up_pixel_buffer_dma_dev* pixel_buffer, struct animation** curr, int x, int y, int size, int isForward) {
  801b70:	defff904 	addi	sp,sp,-28
  801b74:	dfc00615 	stw	ra,24(sp)
  801b78:	df000515 	stw	fp,20(sp)
  801b7c:	df000504 	addi	fp,sp,20
  801b80:	e13ffc15 	stw	r4,-16(fp)
  801b84:	e17ffd15 	stw	r5,-12(fp)
  801b88:	e1bffe15 	stw	r6,-8(fp)
  801b8c:	e1ffff15 	stw	r7,-4(fp)
	if(*curr != NULL) {
  801b90:	e0bffd17 	ldw	r2,-12(fp)
  801b94:	10800017 	ldw	r2,0(r2)
  801b98:	1005003a 	cmpeq	r2,r2,zero
  801b9c:	1000281e 	bne	r2,zero,801c40 <animated+0xd0>
		cleanDrawing(pixel_buffer, (*curr)->prev_x, (*curr)->prev_y, size);
  801ba0:	e0bffd17 	ldw	r2,-12(fp)
  801ba4:	10800017 	ldw	r2,0(r2)
  801ba8:	11400117 	ldw	r5,4(r2)
  801bac:	e0bffd17 	ldw	r2,-12(fp)
  801bb0:	10800017 	ldw	r2,0(r2)
  801bb4:	11800217 	ldw	r6,8(r2)
  801bb8:	e13ffc17 	ldw	r4,-16(fp)
  801bbc:	e1c00217 	ldw	r7,8(fp)
  801bc0:	0801ab80 	call	801ab8 <cleanDrawing>
		(*curr)->prev_x = x;
  801bc4:	e0bffd17 	ldw	r2,-12(fp)
  801bc8:	10c00017 	ldw	r3,0(r2)
  801bcc:	e0bffe17 	ldw	r2,-8(fp)
  801bd0:	18800115 	stw	r2,4(r3)
		(*curr)->prev_y = y;
  801bd4:	e0bffd17 	ldw	r2,-12(fp)
  801bd8:	10c00017 	ldw	r3,0(r2)
  801bdc:	e0bfff17 	ldw	r2,-4(fp)
  801be0:	18800215 	stw	r2,8(r3)
		draw(pixel_buffer, x,y,(*curr)->image,size);
  801be4:	e0bffd17 	ldw	r2,-12(fp)
  801be8:	10800017 	ldw	r2,0(r2)
  801bec:	11c00017 	ldw	r7,0(r2)
  801bf0:	e0800217 	ldw	r2,8(fp)
  801bf4:	d8800015 	stw	r2,0(sp)
  801bf8:	e13ffc17 	ldw	r4,-16(fp)
  801bfc:	e17ffe17 	ldw	r5,-8(fp)
  801c00:	e1bfff17 	ldw	r6,-4(fp)
  801c04:	08019d00 	call	8019d0 <draw>
		if(isForward > 0) {
  801c08:	e0800317 	ldw	r2,12(fp)
  801c0c:	10800050 	cmplti	r2,r2,1
  801c10:	1000061e 	bne	r2,zero,801c2c <animated+0xbc>
			*curr = (*curr)->next;
  801c14:	e0bffd17 	ldw	r2,-12(fp)
  801c18:	10800017 	ldw	r2,0(r2)
  801c1c:	10c00417 	ldw	r3,16(r2)
  801c20:	e0bffd17 	ldw	r2,-12(fp)
  801c24:	10c00015 	stw	r3,0(r2)
  801c28:	00000506 	br	801c40 <animated+0xd0>
		} else {
			*curr = (*curr)->prev;
  801c2c:	e0bffd17 	ldw	r2,-12(fp)
  801c30:	10800017 	ldw	r2,0(r2)
  801c34:	10c00317 	ldw	r3,12(r2)
  801c38:	e0bffd17 	ldw	r2,-12(fp)
  801c3c:	10c00015 	stw	r3,0(r2)
		}
	}
}
  801c40:	e037883a 	mov	sp,fp
  801c44:	dfc00117 	ldw	ra,4(sp)
  801c48:	df000017 	ldw	fp,0(sp)
  801c4c:	dec00204 	addi	sp,sp,8
  801c50:	f800283a 	ret

00801c54 <backgroundAnimation>:

/*
 * animation for background, non-interacting images
 */
void backgroundAnimation(alt_up_pixel_buffer_dma_dev* pixel_buffer, int* coord) {
  801c54:	defff904 	addi	sp,sp,-28
  801c58:	dfc00615 	stw	ra,24(sp)
  801c5c:	df000515 	stw	fp,20(sp)
  801c60:	df000504 	addi	fp,sp,20
  801c64:	e13ffe15 	stw	r4,-8(fp)
  801c68:	e17fff15 	stw	r5,-4(fp)
	alt_up_pixel_buffer_dma_draw_line(pixel_buffer, coord[0], coord[1], 225, 215, 0x0000,0);
  801c6c:	e0bfff17 	ldw	r2,-4(fp)
  801c70:	11400017 	ldw	r5,0(r2)
  801c74:	e0bfff17 	ldw	r2,-4(fp)
  801c78:	10800104 	addi	r2,r2,4
  801c7c:	11800017 	ldw	r6,0(r2)
  801c80:	008035c4 	movi	r2,215
  801c84:	d8800015 	stw	r2,0(sp)
  801c88:	d8000115 	stw	zero,4(sp)
  801c8c:	d8000215 	stw	zero,8(sp)
  801c90:	e13ffe17 	ldw	r4,-8(fp)
  801c94:	01c03844 	movi	r7,225
  801c98:	080f5b80 	call	80f5b8 <alt_up_pixel_buffer_dma_draw_line>
	alt_up_pixel_buffer_dma_draw_line(pixel_buffer, coord[1], coord[0], 225, 215, 0x0000, 0);
  801c9c:	e0bfff17 	ldw	r2,-4(fp)
  801ca0:	10800104 	addi	r2,r2,4
  801ca4:	11400017 	ldw	r5,0(r2)
  801ca8:	e0bfff17 	ldw	r2,-4(fp)
  801cac:	11800017 	ldw	r6,0(r2)
  801cb0:	008035c4 	movi	r2,215
  801cb4:	d8800015 	stw	r2,0(sp)
  801cb8:	d8000115 	stw	zero,4(sp)
  801cbc:	d8000215 	stw	zero,8(sp)
  801cc0:	e13ffe17 	ldw	r4,-8(fp)
  801cc4:	01c03844 	movi	r7,225
  801cc8:	080f5b80 	call	80f5b8 <alt_up_pixel_buffer_dma_draw_line>
	alt_up_pixel_buffer_dma_draw_line(pixel_buffer, coord[0]+20, coord[0]+10, 225, 215, 0x0000,0);
  801ccc:	e0bfff17 	ldw	r2,-4(fp)
  801cd0:	10800017 	ldw	r2,0(r2)
  801cd4:	11400504 	addi	r5,r2,20
  801cd8:	e0bfff17 	ldw	r2,-4(fp)
  801cdc:	10800017 	ldw	r2,0(r2)
  801ce0:	11800284 	addi	r6,r2,10
  801ce4:	008035c4 	movi	r2,215
  801ce8:	d8800015 	stw	r2,0(sp)
  801cec:	d8000115 	stw	zero,4(sp)
  801cf0:	d8000215 	stw	zero,8(sp)
  801cf4:	e13ffe17 	ldw	r4,-8(fp)
  801cf8:	01c03844 	movi	r7,225
  801cfc:	080f5b80 	call	80f5b8 <alt_up_pixel_buffer_dma_draw_line>
	alt_up_pixel_buffer_dma_draw_line(pixel_buffer, coord[1]+10, coord[1]+10, 225, 215, 0x0000,0);
  801d00:	e0bfff17 	ldw	r2,-4(fp)
  801d04:	10800104 	addi	r2,r2,4
  801d08:	10800017 	ldw	r2,0(r2)
  801d0c:	11400284 	addi	r5,r2,10
  801d10:	e0bfff17 	ldw	r2,-4(fp)
  801d14:	10800104 	addi	r2,r2,4
  801d18:	10800017 	ldw	r2,0(r2)
  801d1c:	11800284 	addi	r6,r2,10
  801d20:	008035c4 	movi	r2,215
  801d24:	d8800015 	stw	r2,0(sp)
  801d28:	d8000115 	stw	zero,4(sp)
  801d2c:	d8000215 	stw	zero,8(sp)
  801d30:	e13ffe17 	ldw	r4,-8(fp)
  801d34:	01c03844 	movi	r7,225
  801d38:	080f5b80 	call	80f5b8 <alt_up_pixel_buffer_dma_draw_line>
	coord[0]++;
  801d3c:	e0bfff17 	ldw	r2,-4(fp)
  801d40:	10800017 	ldw	r2,0(r2)
  801d44:	10c00044 	addi	r3,r2,1
  801d48:	e0bfff17 	ldw	r2,-4(fp)
  801d4c:	10c00015 	stw	r3,0(r2)
	coord[1]--;
  801d50:	e0bfff17 	ldw	r2,-4(fp)
  801d54:	10c00104 	addi	r3,r2,4
  801d58:	18800017 	ldw	r2,0(r3)
  801d5c:	10bfffc4 	addi	r2,r2,-1
  801d60:	18800015 	stw	r2,0(r3)
	if(coord[0] > 200) coord[0] = 150;
  801d64:	e0bfff17 	ldw	r2,-4(fp)
  801d68:	10800017 	ldw	r2,0(r2)
  801d6c:	10803250 	cmplti	r2,r2,201
  801d70:	1000031e 	bne	r2,zero,801d80 <backgroundAnimation+0x12c>
  801d74:	e0ffff17 	ldw	r3,-4(fp)
  801d78:	00802584 	movi	r2,150
  801d7c:	18800015 	stw	r2,0(r3)
	if(coord[1] < 150) coord[1] = 200;
  801d80:	e0bfff17 	ldw	r2,-4(fp)
  801d84:	10800104 	addi	r2,r2,4
  801d88:	10800017 	ldw	r2,0(r2)
  801d8c:	10802588 	cmpgei	r2,r2,150
  801d90:	1000041e 	bne	r2,zero,801da4 <backgroundAnimation+0x150>
  801d94:	e0bfff17 	ldw	r2,-4(fp)
  801d98:	10c00104 	addi	r3,r2,4
  801d9c:	00803204 	movi	r2,200
  801da0:	18800015 	stw	r2,0(r3)
	alt_up_pixel_buffer_dma_draw_line(pixel_buffer, coord[0], coord[1], 225, 215, 0x3333,0);
  801da4:	e0bfff17 	ldw	r2,-4(fp)
  801da8:	11400017 	ldw	r5,0(r2)
  801dac:	e0bfff17 	ldw	r2,-4(fp)
  801db0:	10800104 	addi	r2,r2,4
  801db4:	11800017 	ldw	r6,0(r2)
  801db8:	008035c4 	movi	r2,215
  801dbc:	d8800015 	stw	r2,0(sp)
  801dc0:	008cccc4 	movi	r2,13107
  801dc4:	d8800115 	stw	r2,4(sp)
  801dc8:	d8000215 	stw	zero,8(sp)
  801dcc:	e13ffe17 	ldw	r4,-8(fp)
  801dd0:	01c03844 	movi	r7,225
  801dd4:	080f5b80 	call	80f5b8 <alt_up_pixel_buffer_dma_draw_line>
	alt_up_pixel_buffer_dma_draw_line(pixel_buffer, coord[1], coord[0], 225, 215, 0xFFFF, 0);
  801dd8:	e0bfff17 	ldw	r2,-4(fp)
  801ddc:	10800104 	addi	r2,r2,4
  801de0:	11400017 	ldw	r5,0(r2)
  801de4:	e0bfff17 	ldw	r2,-4(fp)
  801de8:	11800017 	ldw	r6,0(r2)
  801dec:	008035c4 	movi	r2,215
  801df0:	d8800015 	stw	r2,0(sp)
  801df4:	00bfffd4 	movui	r2,65535
  801df8:	d8800115 	stw	r2,4(sp)
  801dfc:	d8000215 	stw	zero,8(sp)
  801e00:	e13ffe17 	ldw	r4,-8(fp)
  801e04:	01c03844 	movi	r7,225
  801e08:	080f5b80 	call	80f5b8 <alt_up_pixel_buffer_dma_draw_line>
	alt_up_pixel_buffer_dma_draw_line(pixel_buffer, coord[0]+20, coord[0]+10, 225, 215, 0x1111,0);
  801e0c:	e0bfff17 	ldw	r2,-4(fp)
  801e10:	10800017 	ldw	r2,0(r2)
  801e14:	11400504 	addi	r5,r2,20
  801e18:	e0bfff17 	ldw	r2,-4(fp)
  801e1c:	10800017 	ldw	r2,0(r2)
  801e20:	11800284 	addi	r6,r2,10
  801e24:	008035c4 	movi	r2,215
  801e28:	d8800015 	stw	r2,0(sp)
  801e2c:	00844444 	movi	r2,4369
  801e30:	d8800115 	stw	r2,4(sp)
  801e34:	d8000215 	stw	zero,8(sp)
  801e38:	e13ffe17 	ldw	r4,-8(fp)
  801e3c:	01c03844 	movi	r7,225
  801e40:	080f5b80 	call	80f5b8 <alt_up_pixel_buffer_dma_draw_line>
	alt_up_pixel_buffer_dma_draw_line(pixel_buffer, coord[1]+10, coord[1]+10, 225, 215, 0xAAAA,0);
  801e44:	e0bfff17 	ldw	r2,-4(fp)
  801e48:	10800104 	addi	r2,r2,4
  801e4c:	10800017 	ldw	r2,0(r2)
  801e50:	11400284 	addi	r5,r2,10
  801e54:	e0bfff17 	ldw	r2,-4(fp)
  801e58:	10800104 	addi	r2,r2,4
  801e5c:	10800017 	ldw	r2,0(r2)
  801e60:	11800284 	addi	r6,r2,10
  801e64:	008035c4 	movi	r2,215
  801e68:	d8800015 	stw	r2,0(sp)
  801e6c:	00aaaa94 	movui	r2,43690
  801e70:	d8800115 	stw	r2,4(sp)
  801e74:	d8000215 	stw	zero,8(sp)
  801e78:	e13ffe17 	ldw	r4,-8(fp)
  801e7c:	01c03844 	movi	r7,225
  801e80:	080f5b80 	call	80f5b8 <alt_up_pixel_buffer_dma_draw_line>

}
  801e84:	e037883a 	mov	sp,fp
  801e88:	dfc00117 	ldw	ra,4(sp)
  801e8c:	df000017 	ldw	fp,0(sp)
  801e90:	dec00204 	addi	sp,sp,8
  801e94:	f800283a 	ret

00801e98 <getColor>:

/*helper function to convert 32 bit color code to 16 bit color*/

int getColor(int red, int green, int blue) {
  801e98:	defff904 	addi	sp,sp,-28
  801e9c:	dfc00615 	stw	ra,24(sp)
  801ea0:	df000515 	stw	fp,20(sp)
  801ea4:	dc400415 	stw	r17,16(sp)
  801ea8:	dc000315 	stw	r16,12(sp)
  801eac:	df000304 	addi	fp,sp,12
  801eb0:	e13ffd15 	stw	r4,-12(fp)
  801eb4:	e17ffe15 	stw	r5,-8(fp)
  801eb8:	e1bfff15 	stw	r6,-4(fp)
	return (int)((red*0.25)*2048 + (green*0.5)*64 + blue*0.25);
  801ebc:	e13ffd17 	ldw	r4,-12(fp)
  801ec0:	080314c0 	call	80314c <__floatsidf>
  801ec4:	100b883a 	mov	r5,r2
  801ec8:	180d883a 	mov	r6,r3
  801ecc:	2809883a 	mov	r4,r5
  801ed0:	300b883a 	mov	r5,r6
  801ed4:	000d883a 	mov	r6,zero
  801ed8:	01cff434 	movhi	r7,16336
  801edc:	0802aa80 	call	802aa8 <__muldf3>
  801ee0:	1009883a 	mov	r4,r2
  801ee4:	180b883a 	mov	r5,r3
  801ee8:	2005883a 	mov	r2,r4
  801eec:	2807883a 	mov	r3,r5
  801ef0:	1009883a 	mov	r4,r2
  801ef4:	180b883a 	mov	r5,r3
  801ef8:	000d883a 	mov	r6,zero
  801efc:	01d02834 	movhi	r7,16544
  801f00:	0802aa80 	call	802aa8 <__muldf3>
  801f04:	1009883a 	mov	r4,r2
  801f08:	180b883a 	mov	r5,r3
  801f0c:	2021883a 	mov	r16,r4
  801f10:	2823883a 	mov	r17,r5
  801f14:	e13ffe17 	ldw	r4,-8(fp)
  801f18:	080314c0 	call	80314c <__floatsidf>
  801f1c:	100b883a 	mov	r5,r2
  801f20:	180d883a 	mov	r6,r3
  801f24:	2809883a 	mov	r4,r5
  801f28:	300b883a 	mov	r5,r6
  801f2c:	000d883a 	mov	r6,zero
  801f30:	01cff834 	movhi	r7,16352
  801f34:	0802aa80 	call	802aa8 <__muldf3>
  801f38:	1009883a 	mov	r4,r2
  801f3c:	180b883a 	mov	r5,r3
  801f40:	2005883a 	mov	r2,r4
  801f44:	2807883a 	mov	r3,r5
  801f48:	1009883a 	mov	r4,r2
  801f4c:	180b883a 	mov	r5,r3
  801f50:	000d883a 	mov	r6,zero
  801f54:	01d01434 	movhi	r7,16464
  801f58:	0802aa80 	call	802aa8 <__muldf3>
  801f5c:	1009883a 	mov	r4,r2
  801f60:	180b883a 	mov	r5,r3
  801f64:	2005883a 	mov	r2,r4
  801f68:	2807883a 	mov	r3,r5
  801f6c:	8009883a 	mov	r4,r16
  801f70:	880b883a 	mov	r5,r17
  801f74:	100d883a 	mov	r6,r2
  801f78:	180f883a 	mov	r7,r3
  801f7c:	0802a340 	call	802a34 <__adddf3>
  801f80:	1009883a 	mov	r4,r2
  801f84:	180b883a 	mov	r5,r3
  801f88:	2021883a 	mov	r16,r4
  801f8c:	2823883a 	mov	r17,r5
  801f90:	e13fff17 	ldw	r4,-4(fp)
  801f94:	080314c0 	call	80314c <__floatsidf>
  801f98:	100b883a 	mov	r5,r2
  801f9c:	180d883a 	mov	r6,r3
  801fa0:	2809883a 	mov	r4,r5
  801fa4:	300b883a 	mov	r5,r6
  801fa8:	000d883a 	mov	r6,zero
  801fac:	01cff434 	movhi	r7,16336
  801fb0:	0802aa80 	call	802aa8 <__muldf3>
  801fb4:	1009883a 	mov	r4,r2
  801fb8:	180b883a 	mov	r5,r3
  801fbc:	2005883a 	mov	r2,r4
  801fc0:	2807883a 	mov	r3,r5
  801fc4:	8009883a 	mov	r4,r16
  801fc8:	880b883a 	mov	r5,r17
  801fcc:	100d883a 	mov	r6,r2
  801fd0:	180f883a 	mov	r7,r3
  801fd4:	0802a340 	call	802a34 <__adddf3>
  801fd8:	1009883a 	mov	r4,r2
  801fdc:	180b883a 	mov	r5,r3
  801fe0:	2005883a 	mov	r2,r4
  801fe4:	2807883a 	mov	r3,r5
  801fe8:	1009883a 	mov	r4,r2
  801fec:	180b883a 	mov	r5,r3
  801ff0:	08032440 	call	803244 <__fixdfsi>
}
  801ff4:	e037883a 	mov	sp,fp
  801ff8:	dfc00317 	ldw	ra,12(sp)
  801ffc:	df000217 	ldw	fp,8(sp)
  802000:	dc400117 	ldw	r17,4(sp)
  802004:	dc000017 	ldw	r16,0(sp)
  802008:	dec00404 	addi	sp,sp,16
  80200c:	f800283a 	ret

00802010 <sqrt>:
  802010:	defff104 	addi	sp,sp,-60
  802014:	dd000d15 	stw	r20,52(sp)
  802018:	050020b4 	movhi	r20,130
  80201c:	a5313d04 	addi	r20,r20,-15116
  802020:	dcc00c15 	stw	r19,48(sp)
  802024:	dc800b15 	stw	r18,44(sp)
  802028:	dc400a15 	stw	r17,40(sp)
  80202c:	dc000915 	stw	r16,36(sp)
  802030:	2025883a 	mov	r18,r4
  802034:	dfc00e15 	stw	ra,56(sp)
  802038:	2827883a 	mov	r19,r5
  80203c:	08021400 	call	802140 <__ieee754_sqrt>
  802040:	a1000017 	ldw	r4,0(r20)
  802044:	1021883a 	mov	r16,r2
  802048:	00bfffc4 	movi	r2,-1
  80204c:	1823883a 	mov	r17,r3
  802050:	20800a26 	beq	r4,r2,80207c <sqrt+0x6c>
  802054:	9009883a 	mov	r4,r18
  802058:	980b883a 	mov	r5,r19
  80205c:	08024080 	call	802408 <__isnand>
  802060:	1000061e 	bne	r2,zero,80207c <sqrt+0x6c>
  802064:	000d883a 	mov	r6,zero
  802068:	000f883a 	mov	r7,zero
  80206c:	9009883a 	mov	r4,r18
  802070:	980b883a 	mov	r5,r19
  802074:	08030c40 	call	8030c4 <__ltdf2>
  802078:	10000a16 	blt	r2,zero,8020a4 <sqrt+0x94>
  80207c:	8005883a 	mov	r2,r16
  802080:	8807883a 	mov	r3,r17
  802084:	dfc00e17 	ldw	ra,56(sp)
  802088:	dd000d17 	ldw	r20,52(sp)
  80208c:	dcc00c17 	ldw	r19,48(sp)
  802090:	dc800b17 	ldw	r18,44(sp)
  802094:	dc400a17 	ldw	r17,40(sp)
  802098:	dc000917 	ldw	r16,36(sp)
  80209c:	dec00f04 	addi	sp,sp,60
  8020a0:	f800283a 	ret
  8020a4:	a4000017 	ldw	r16,0(r20)
  8020a8:	00800044 	movi	r2,1
  8020ac:	00c02074 	movhi	r3,129
  8020b0:	18d48204 	addi	r3,r3,21000
  8020b4:	d8800015 	stw	r2,0(sp)
  8020b8:	d8c00115 	stw	r3,4(sp)
  8020bc:	dcc00315 	stw	r19,12(sp)
  8020c0:	d8000815 	stw	zero,32(sp)
  8020c4:	dc800415 	stw	r18,16(sp)
  8020c8:	dcc00515 	stw	r19,20(sp)
  8020cc:	dc800215 	stw	r18,8(sp)
  8020d0:	80000a1e 	bne	r16,zero,8020fc <sqrt+0xec>
  8020d4:	d8000615 	stw	zero,24(sp)
  8020d8:	d8000715 	stw	zero,28(sp)
  8020dc:	d809883a 	mov	r4,sp
  8020e0:	08024380 	call	802438 <matherr>
  8020e4:	10000e26 	beq	r2,zero,802120 <sqrt+0x110>
  8020e8:	d8800817 	ldw	r2,32(sp)
  8020ec:	1000101e 	bne	r2,zero,802130 <sqrt+0x120>
  8020f0:	dc000617 	ldw	r16,24(sp)
  8020f4:	dc400717 	ldw	r17,28(sp)
  8020f8:	003fe006 	br	80207c <sqrt+0x6c>
  8020fc:	0009883a 	mov	r4,zero
  802100:	000d883a 	mov	r6,zero
  802104:	000b883a 	mov	r5,zero
  802108:	000f883a 	mov	r7,zero
  80210c:	0802e6c0 	call	802e6c <__divdf3>
  802110:	d8800615 	stw	r2,24(sp)
  802114:	00800084 	movi	r2,2
  802118:	d8c00715 	stw	r3,28(sp)
  80211c:	80bfef1e 	bne	r16,r2,8020dc <sqrt+0xcc>
  802120:	0803e3c0 	call	803e3c <__errno>
  802124:	00c00844 	movi	r3,33
  802128:	10c00015 	stw	r3,0(r2)
  80212c:	003fee06 	br	8020e8 <sqrt+0xd8>
  802130:	0803e3c0 	call	803e3c <__errno>
  802134:	d8c00817 	ldw	r3,32(sp)
  802138:	10c00015 	stw	r3,0(r2)
  80213c:	003fec06 	br	8020f0 <sqrt+0xe0>

00802140 <__ieee754_sqrt>:
  802140:	defffd04 	addi	sp,sp,-12
  802144:	dc000015 	stw	r16,0(sp)
  802148:	009ffc34 	movhi	r2,32752
  80214c:	2021883a 	mov	r16,r4
  802150:	291ffc2c 	andhi	r4,r5,32752
  802154:	dc400115 	stw	r17,4(sp)
  802158:	dfc00215 	stw	ra,8(sp)
  80215c:	2823883a 	mov	r17,r5
  802160:	280f883a 	mov	r7,r5
  802164:	2807883a 	mov	r3,r5
  802168:	8011883a 	mov	r8,r16
  80216c:	20807d26 	beq	r4,r2,802364 <__ieee754_sqrt+0x224>
  802170:	01408d0e 	bge	zero,r5,8023a8 <__ieee754_sqrt+0x268>
  802174:	380dd53a 	srai	r6,r7,20
  802178:	3000131e 	bne	r6,zero,8021c8 <__ieee754_sqrt+0x88>
  80217c:	1800041e 	bne	r3,zero,802190 <__ieee754_sqrt+0x50>
  802180:	400ed2fa 	srli	r7,r8,11
  802184:	31bffac4 	addi	r6,r6,-21
  802188:	4010957a 	slli	r8,r8,21
  80218c:	383ffc26 	beq	r7,zero,802180 <__ieee754_sqrt+0x40>
  802190:	3880042c 	andhi	r2,r7,16
  802194:	1000991e 	bne	r2,zero,8023fc <__ieee754_sqrt+0x2bc>
  802198:	0009883a 	mov	r4,zero
  80219c:	39cf883a 	add	r7,r7,r7
  8021a0:	3880042c 	andhi	r2,r7,16
  8021a4:	21000044 	addi	r4,r4,1
  8021a8:	103ffc26 	beq	r2,zero,80219c <__ieee754_sqrt+0x5c>
  8021ac:	00800804 	movi	r2,32
  8021b0:	1105c83a 	sub	r2,r2,r4
  8021b4:	4086d83a 	srl	r3,r8,r2
  8021b8:	4110983a 	sll	r8,r8,r4
  8021bc:	3105c83a 	sub	r2,r6,r4
  8021c0:	38ceb03a 	or	r7,r7,r3
  8021c4:	11800044 	addi	r6,r2,1
  8021c8:	31bf0044 	addi	r6,r6,-1023
  8021cc:	30c0004c 	andi	r3,r6,1
  8021d0:	00800434 	movhi	r2,16
  8021d4:	10bfffc4 	addi	r2,r2,-1
  8021d8:	3884703a 	and	r2,r7,r2
  8021dc:	1807003a 	cmpeq	r3,r3,zero
  8021e0:	11000434 	orhi	r4,r2,16
  8021e4:	18005426 	beq	r3,zero,802338 <__ieee754_sqrt+0x1f8>
  8021e8:	4004d7fa 	srli	r2,r8,31
  8021ec:	4207883a 	add	r3,r8,r8
  8021f0:	02800834 	movhi	r10,32
  8021f4:	1105883a 	add	r2,r2,r4
  8021f8:	2089883a 	add	r4,r4,r2
  8021fc:	0011883a 	mov	r8,zero
  802200:	000b883a 	mov	r5,zero
  802204:	0013883a 	mov	r9,zero
  802208:	02c00584 	movi	r11,22
  80220c:	520f883a 	add	r7,r10,r8
  802210:	1804d7fa 	srli	r2,r3,31
  802214:	4a400044 	addi	r9,r9,1
  802218:	18c7883a 	add	r3,r3,r3
  80221c:	21c00316 	blt	r4,r7,80222c <__ieee754_sqrt+0xec>
  802220:	21c9c83a 	sub	r4,r4,r7
  802224:	2a8b883a 	add	r5,r5,r10
  802228:	51d1883a 	add	r8,r10,r7
  80222c:	1105883a 	add	r2,r2,r4
  802230:	5014d07a 	srli	r10,r10,1
  802234:	2089883a 	add	r4,r4,r2
  802238:	4afff41e 	bne	r9,r11,80220c <__ieee754_sqrt+0xcc>
  80223c:	02600034 	movhi	r9,32768
  802240:	0017883a 	mov	r11,zero
  802244:	0019883a 	mov	r12,zero
  802248:	0015883a 	mov	r10,zero
  80224c:	4821883a 	mov	r16,r9
  802250:	03c00804 	movi	r15,32
  802254:	00000806 	br	802278 <__ieee754_sqrt+0x138>
  802258:	22003426 	beq	r4,r8,80232c <__ieee754_sqrt+0x1ec>
  80225c:	1804d7fa 	srli	r2,r3,31
  802260:	52800044 	addi	r10,r10,1
  802264:	18c7883a 	add	r3,r3,r3
  802268:	1105883a 	add	r2,r2,r4
  80226c:	2089883a 	add	r4,r4,r2
  802270:	4812d07a 	srli	r9,r9,1
  802274:	53c01326 	beq	r10,r15,8022c4 <__ieee754_sqrt+0x184>
  802278:	4acf883a 	add	r7,r9,r11
  80227c:	413ff60e 	bge	r8,r4,802258 <__ieee754_sqrt+0x118>
  802280:	38a0002c 	andhi	r2,r7,32768
  802284:	3a57883a 	add	r11,r7,r9
  802288:	14002426 	beq	r2,r16,80231c <__ieee754_sqrt+0x1dc>
  80228c:	4005883a 	mov	r2,r8
  802290:	2209c83a 	sub	r4,r4,r8
  802294:	19c0012e 	bgeu	r3,r7,80229c <__ieee754_sqrt+0x15c>
  802298:	213fffc4 	addi	r4,r4,-1
  80229c:	19c7c83a 	sub	r3,r3,r7
  8022a0:	1011883a 	mov	r8,r2
  8022a4:	1804d7fa 	srli	r2,r3,31
  8022a8:	52800044 	addi	r10,r10,1
  8022ac:	6259883a 	add	r12,r12,r9
  8022b0:	1105883a 	add	r2,r2,r4
  8022b4:	18c7883a 	add	r3,r3,r3
  8022b8:	2089883a 	add	r4,r4,r2
  8022bc:	4812d07a 	srli	r9,r9,1
  8022c0:	53ffed1e 	bne	r10,r15,802278 <__ieee754_sqrt+0x138>
  8022c4:	20c4b03a 	or	r2,r4,r3
  8022c8:	1000201e 	bne	r2,zero,80234c <__ieee754_sqrt+0x20c>
  8022cc:	600ed07a 	srli	r7,r12,1
  8022d0:	2880004c 	andi	r2,r5,1
  8022d4:	1005003a 	cmpeq	r2,r2,zero
  8022d8:	1000011e 	bne	r2,zero,8022e0 <__ieee754_sqrt+0x1a0>
  8022dc:	39e00034 	orhi	r7,r7,32768
  8022e0:	300dd07a 	srai	r6,r6,1
  8022e4:	280bd07a 	srai	r5,r5,1
  8022e8:	010ff834 	movhi	r4,16352
  8022ec:	300c953a 	slli	r6,r6,20
  8022f0:	290b883a 	add	r5,r5,r4
  8022f4:	3821883a 	mov	r16,r7
  8022f8:	299d883a 	add	r14,r5,r6
  8022fc:	7023883a 	mov	r17,r14
  802300:	8005883a 	mov	r2,r16
  802304:	8807883a 	mov	r3,r17
  802308:	dfc00217 	ldw	ra,8(sp)
  80230c:	dc400117 	ldw	r17,4(sp)
  802310:	dc000017 	ldw	r16,0(sp)
  802314:	dec00304 	addi	sp,sp,12
  802318:	f800283a 	ret
  80231c:	5884703a 	and	r2,r11,r2
  802320:	103fda1e 	bne	r2,zero,80228c <__ieee754_sqrt+0x14c>
  802324:	40800044 	addi	r2,r8,1
  802328:	003fd906 	br	802290 <__ieee754_sqrt+0x150>
  80232c:	19ffd42e 	bgeu	r3,r7,802280 <__ieee754_sqrt+0x140>
  802330:	2011883a 	mov	r8,r4
  802334:	003fc906 	br	80225c <__ieee754_sqrt+0x11c>
  802338:	4004d7fa 	srli	r2,r8,31
  80233c:	4211883a 	add	r8,r8,r8
  802340:	1105883a 	add	r2,r2,r4
  802344:	2089883a 	add	r4,r4,r2
  802348:	003fa706 	br	8021e8 <__ieee754_sqrt+0xa8>
  80234c:	00bfffc4 	movi	r2,-1
  802350:	60802726 	beq	r12,r2,8023f0 <__ieee754_sqrt+0x2b0>
  802354:	6080004c 	andi	r2,r12,1
  802358:	6085883a 	add	r2,r12,r2
  80235c:	100ed07a 	srli	r7,r2,1
  802360:	003fdb06 	br	8022d0 <__ieee754_sqrt+0x190>
  802364:	8009883a 	mov	r4,r16
  802368:	800d883a 	mov	r6,r16
  80236c:	0802aa80 	call	802aa8 <__muldf3>
  802370:	180f883a 	mov	r7,r3
  802374:	880b883a 	mov	r5,r17
  802378:	8009883a 	mov	r4,r16
  80237c:	100d883a 	mov	r6,r2
  802380:	0802a340 	call	802a34 <__adddf3>
  802384:	1021883a 	mov	r16,r2
  802388:	1823883a 	mov	r17,r3
  80238c:	8005883a 	mov	r2,r16
  802390:	8807883a 	mov	r3,r17
  802394:	dfc00217 	ldw	ra,8(sp)
  802398:	dc400117 	ldw	r17,4(sp)
  80239c:	dc000017 	ldw	r16,0(sp)
  8023a0:	dec00304 	addi	sp,sp,12
  8023a4:	f800283a 	ret
  8023a8:	00a00034 	movhi	r2,32768
  8023ac:	10bfffc4 	addi	r2,r2,-1
  8023b0:	2884703a 	and	r2,r5,r2
  8023b4:	8084b03a 	or	r2,r16,r2
  8023b8:	103fd126 	beq	r2,zero,802300 <__ieee754_sqrt+0x1c0>
  8023bc:	283f6d26 	beq	r5,zero,802174 <__ieee754_sqrt+0x34>
  8023c0:	280f883a 	mov	r7,r5
  8023c4:	8009883a 	mov	r4,r16
  8023c8:	800d883a 	mov	r6,r16
  8023cc:	08029b40 	call	8029b4 <__subdf3>
  8023d0:	1009883a 	mov	r4,r2
  8023d4:	180b883a 	mov	r5,r3
  8023d8:	100d883a 	mov	r6,r2
  8023dc:	180f883a 	mov	r7,r3
  8023e0:	0802e6c0 	call	802e6c <__divdf3>
  8023e4:	1021883a 	mov	r16,r2
  8023e8:	1823883a 	mov	r17,r3
  8023ec:	003fc406 	br	802300 <__ieee754_sqrt+0x1c0>
  8023f0:	29400044 	addi	r5,r5,1
  8023f4:	000f883a 	mov	r7,zero
  8023f8:	003fb506 	br	8022d0 <__ieee754_sqrt+0x190>
  8023fc:	0009883a 	mov	r4,zero
  802400:	00800804 	movi	r2,32
  802404:	003f6b06 	br	8021b4 <__ieee754_sqrt+0x74>

00802408 <__isnand>:
  802408:	200d883a 	mov	r6,r4
  80240c:	0109c83a 	sub	r4,zero,r4
  802410:	2188b03a 	or	r4,r4,r6
  802414:	2008d7fa 	srli	r4,r4,31
  802418:	00a00034 	movhi	r2,32768
  80241c:	10bfffc4 	addi	r2,r2,-1
  802420:	1144703a 	and	r2,r2,r5
  802424:	2088b03a 	or	r4,r4,r2
  802428:	009ffc34 	movhi	r2,32752
  80242c:	1105c83a 	sub	r2,r2,r4
  802430:	1004d7fa 	srli	r2,r2,31
  802434:	f800283a 	ret

00802438 <matherr>:
  802438:	0005883a 	mov	r2,zero
  80243c:	f800283a 	ret

00802440 <__lesf2>:
  802440:	defff304 	addi	sp,sp,-52
  802444:	dc400b15 	stw	r17,44(sp)
  802448:	dc400204 	addi	r17,sp,8
  80244c:	dc000a15 	stw	r16,40(sp)
  802450:	d9000015 	stw	r4,0(sp)
  802454:	d9400115 	stw	r5,4(sp)
  802458:	d809883a 	mov	r4,sp
  80245c:	880b883a 	mov	r5,r17
  802460:	dc000604 	addi	r16,sp,24
  802464:	dfc00c15 	stw	ra,48(sp)
  802468:	080378c0 	call	80378c <__unpack_f>
  80246c:	d9000104 	addi	r4,sp,4
  802470:	800b883a 	mov	r5,r16
  802474:	080378c0 	call	80378c <__unpack_f>
  802478:	d8800217 	ldw	r2,8(sp)
  80247c:	00c00044 	movi	r3,1
  802480:	180d883a 	mov	r6,r3
  802484:	1880062e 	bgeu	r3,r2,8024a0 <__lesf2+0x60>
  802488:	d8800617 	ldw	r2,24(sp)
  80248c:	8809883a 	mov	r4,r17
  802490:	800b883a 	mov	r5,r16
  802494:	1880022e 	bgeu	r3,r2,8024a0 <__lesf2+0x60>
  802498:	08038540 	call	803854 <__fpcmp_parts_f>
  80249c:	100d883a 	mov	r6,r2
  8024a0:	3005883a 	mov	r2,r6
  8024a4:	dfc00c17 	ldw	ra,48(sp)
  8024a8:	dc400b17 	ldw	r17,44(sp)
  8024ac:	dc000a17 	ldw	r16,40(sp)
  8024b0:	dec00d04 	addi	sp,sp,52
  8024b4:	f800283a 	ret

008024b8 <__floatsisf>:
  8024b8:	2006d7fa 	srli	r3,r4,31
  8024bc:	defffa04 	addi	sp,sp,-24
  8024c0:	008000c4 	movi	r2,3
  8024c4:	dfc00515 	stw	ra,20(sp)
  8024c8:	dc000415 	stw	r16,16(sp)
  8024cc:	d8800015 	stw	r2,0(sp)
  8024d0:	d8c00115 	stw	r3,4(sp)
  8024d4:	2000081e 	bne	r4,zero,8024f8 <__floatsisf+0x40>
  8024d8:	00800084 	movi	r2,2
  8024dc:	d8800015 	stw	r2,0(sp)
  8024e0:	d809883a 	mov	r4,sp
  8024e4:	080362c0 	call	80362c <__pack_f>
  8024e8:	dfc00517 	ldw	ra,20(sp)
  8024ec:	dc000417 	ldw	r16,16(sp)
  8024f0:	dec00604 	addi	sp,sp,24
  8024f4:	f800283a 	ret
  8024f8:	00800784 	movi	r2,30
  8024fc:	1807003a 	cmpeq	r3,r3,zero
  802500:	d8800215 	stw	r2,8(sp)
  802504:	18000e1e 	bne	r3,zero,802540 <__floatsisf+0x88>
  802508:	00a00034 	movhi	r2,32768
  80250c:	20800e26 	beq	r4,r2,802548 <__floatsisf+0x90>
  802510:	0121c83a 	sub	r16,zero,r4
  802514:	8009883a 	mov	r4,r16
  802518:	dc000315 	stw	r16,12(sp)
  80251c:	08035ac0 	call	8035ac <__clzsi2>
  802520:	117fffc4 	addi	r5,r2,-1
  802524:	017fee0e 	bge	zero,r5,8024e0 <__floatsisf+0x28>
  802528:	d8800217 	ldw	r2,8(sp)
  80252c:	8146983a 	sll	r3,r16,r5
  802530:	1145c83a 	sub	r2,r2,r5
  802534:	d8c00315 	stw	r3,12(sp)
  802538:	d8800215 	stw	r2,8(sp)
  80253c:	003fe806 	br	8024e0 <__floatsisf+0x28>
  802540:	2021883a 	mov	r16,r4
  802544:	003ff306 	br	802514 <__floatsisf+0x5c>
  802548:	00b3c034 	movhi	r2,52992
  80254c:	003fe606 	br	8024e8 <__floatsisf+0x30>

00802550 <__extendsfdf2>:
  802550:	defff904 	addi	sp,sp,-28
  802554:	d9000115 	stw	r4,4(sp)
  802558:	d9400204 	addi	r5,sp,8
  80255c:	d9000104 	addi	r4,sp,4
  802560:	dfc00615 	stw	ra,24(sp)
  802564:	080378c0 	call	80378c <__unpack_f>
  802568:	d9c00517 	ldw	r7,20(sp)
  80256c:	0011883a 	mov	r8,zero
  802570:	400697ba 	slli	r3,r8,30
  802574:	3812d0ba 	srli	r9,r7,2
  802578:	380497ba 	slli	r2,r7,30
  80257c:	d9000217 	ldw	r4,8(sp)
  802580:	d9400317 	ldw	r5,12(sp)
  802584:	d9800417 	ldw	r6,16(sp)
  802588:	48c6b03a 	or	r3,r9,r3
  80258c:	100f883a 	mov	r7,r2
  802590:	d8c00015 	stw	r3,0(sp)
  802594:	080331c0 	call	80331c <__make_dp>
  802598:	dfc00617 	ldw	ra,24(sp)
  80259c:	dec00704 	addi	sp,sp,28
  8025a0:	f800283a 	ret

008025a4 <_fpadd_parts>:
  8025a4:	defff804 	addi	sp,sp,-32
  8025a8:	dcc00315 	stw	r19,12(sp)
  8025ac:	2027883a 	mov	r19,r4
  8025b0:	21000017 	ldw	r4,0(r4)
  8025b4:	00c00044 	movi	r3,1
  8025b8:	dd400515 	stw	r21,20(sp)
  8025bc:	dd000415 	stw	r20,16(sp)
  8025c0:	ddc00715 	stw	r23,28(sp)
  8025c4:	dd800615 	stw	r22,24(sp)
  8025c8:	dc800215 	stw	r18,8(sp)
  8025cc:	dc400115 	stw	r17,4(sp)
  8025d0:	dc000015 	stw	r16,0(sp)
  8025d4:	282b883a 	mov	r21,r5
  8025d8:	3029883a 	mov	r20,r6
  8025dc:	1900632e 	bgeu	r3,r4,80276c <_fpadd_parts+0x1c8>
  8025e0:	28800017 	ldw	r2,0(r5)
  8025e4:	1880812e 	bgeu	r3,r2,8027ec <_fpadd_parts+0x248>
  8025e8:	00c00104 	movi	r3,4
  8025ec:	20c0dc26 	beq	r4,r3,802960 <_fpadd_parts+0x3bc>
  8025f0:	10c07e26 	beq	r2,r3,8027ec <_fpadd_parts+0x248>
  8025f4:	00c00084 	movi	r3,2
  8025f8:	10c06726 	beq	r2,r3,802798 <_fpadd_parts+0x1f4>
  8025fc:	20c07b26 	beq	r4,r3,8027ec <_fpadd_parts+0x248>
  802600:	9dc00217 	ldw	r23,8(r19)
  802604:	28c00217 	ldw	r3,8(r5)
  802608:	9c400317 	ldw	r17,12(r19)
  80260c:	2bc00317 	ldw	r15,12(r5)
  802610:	b8cdc83a 	sub	r6,r23,r3
  802614:	9c800417 	ldw	r18,16(r19)
  802618:	2c000417 	ldw	r16,16(r5)
  80261c:	3009883a 	mov	r4,r6
  802620:	30009716 	blt	r6,zero,802880 <_fpadd_parts+0x2dc>
  802624:	00800fc4 	movi	r2,63
  802628:	11806b16 	blt	r2,r6,8027d8 <_fpadd_parts+0x234>
  80262c:	0100a40e 	bge	zero,r4,8028c0 <_fpadd_parts+0x31c>
  802630:	35bff804 	addi	r22,r6,-32
  802634:	b000bc16 	blt	r22,zero,802928 <_fpadd_parts+0x384>
  802638:	8596d83a 	srl	r11,r16,r22
  80263c:	0019883a 	mov	r12,zero
  802640:	0013883a 	mov	r9,zero
  802644:	01000044 	movi	r4,1
  802648:	0015883a 	mov	r10,zero
  80264c:	b000be16 	blt	r22,zero,802948 <_fpadd_parts+0x3a4>
  802650:	2590983a 	sll	r8,r4,r22
  802654:	000f883a 	mov	r7,zero
  802658:	00bfffc4 	movi	r2,-1
  80265c:	3889883a 	add	r4,r7,r2
  802660:	408b883a 	add	r5,r8,r2
  802664:	21cd803a 	cmpltu	r6,r4,r7
  802668:	314b883a 	add	r5,r6,r5
  80266c:	7904703a 	and	r2,r15,r4
  802670:	8146703a 	and	r3,r16,r5
  802674:	10c4b03a 	or	r2,r2,r3
  802678:	10000226 	beq	r2,zero,802684 <_fpadd_parts+0xe0>
  80267c:	02400044 	movi	r9,1
  802680:	0015883a 	mov	r10,zero
  802684:	5a5eb03a 	or	r15,r11,r9
  802688:	62a0b03a 	or	r16,r12,r10
  80268c:	99400117 	ldw	r5,4(r19)
  802690:	a8800117 	ldw	r2,4(r21)
  802694:	28806e26 	beq	r5,r2,802850 <_fpadd_parts+0x2ac>
  802698:	28006626 	beq	r5,zero,802834 <_fpadd_parts+0x290>
  80269c:	7c45c83a 	sub	r2,r15,r17
  8026a0:	7889803a 	cmpltu	r4,r15,r2
  8026a4:	8487c83a 	sub	r3,r16,r18
  8026a8:	1909c83a 	sub	r4,r3,r4
  8026ac:	100d883a 	mov	r6,r2
  8026b0:	200f883a 	mov	r7,r4
  8026b4:	38007716 	blt	r7,zero,802894 <_fpadd_parts+0x2f0>
  8026b8:	a5c00215 	stw	r23,8(r20)
  8026bc:	a1c00415 	stw	r7,16(r20)
  8026c0:	a0000115 	stw	zero,4(r20)
  8026c4:	a1800315 	stw	r6,12(r20)
  8026c8:	a2000317 	ldw	r8,12(r20)
  8026cc:	a2400417 	ldw	r9,16(r20)
  8026d0:	00bfffc4 	movi	r2,-1
  8026d4:	408b883a 	add	r5,r8,r2
  8026d8:	2a09803a 	cmpltu	r4,r5,r8
  8026dc:	488d883a 	add	r6,r9,r2
  8026e0:	01c40034 	movhi	r7,4096
  8026e4:	39ffffc4 	addi	r7,r7,-1
  8026e8:	218d883a 	add	r6,r4,r6
  8026ec:	39801736 	bltu	r7,r6,80274c <_fpadd_parts+0x1a8>
  8026f0:	31c06526 	beq	r6,r7,802888 <_fpadd_parts+0x2e4>
  8026f4:	a3000217 	ldw	r12,8(r20)
  8026f8:	4209883a 	add	r4,r8,r8
  8026fc:	00bfffc4 	movi	r2,-1
  802700:	220f803a 	cmpltu	r7,r4,r8
  802704:	4a4b883a 	add	r5,r9,r9
  802708:	394f883a 	add	r7,r7,r5
  80270c:	2095883a 	add	r10,r4,r2
  802710:	3897883a 	add	r11,r7,r2
  802714:	510d803a 	cmpltu	r6,r10,r4
  802718:	6099883a 	add	r12,r12,r2
  80271c:	32d7883a 	add	r11,r6,r11
  802720:	00840034 	movhi	r2,4096
  802724:	10bfffc4 	addi	r2,r2,-1
  802728:	2011883a 	mov	r8,r4
  80272c:	3813883a 	mov	r9,r7
  802730:	a1000315 	stw	r4,12(r20)
  802734:	a1c00415 	stw	r7,16(r20)
  802738:	a3000215 	stw	r12,8(r20)
  80273c:	12c00336 	bltu	r2,r11,80274c <_fpadd_parts+0x1a8>
  802740:	58bfed1e 	bne	r11,r2,8026f8 <_fpadd_parts+0x154>
  802744:	00bfff84 	movi	r2,-2
  802748:	12bfeb2e 	bgeu	r2,r10,8026f8 <_fpadd_parts+0x154>
  80274c:	a2800417 	ldw	r10,16(r20)
  802750:	008000c4 	movi	r2,3
  802754:	00c80034 	movhi	r3,8192
  802758:	18ffffc4 	addi	r3,r3,-1
  80275c:	a2400317 	ldw	r9,12(r20)
  802760:	a0800015 	stw	r2,0(r20)
  802764:	1a802336 	bltu	r3,r10,8027f4 <_fpadd_parts+0x250>
  802768:	a027883a 	mov	r19,r20
  80276c:	9805883a 	mov	r2,r19
  802770:	ddc00717 	ldw	r23,28(sp)
  802774:	dd800617 	ldw	r22,24(sp)
  802778:	dd400517 	ldw	r21,20(sp)
  80277c:	dd000417 	ldw	r20,16(sp)
  802780:	dcc00317 	ldw	r19,12(sp)
  802784:	dc800217 	ldw	r18,8(sp)
  802788:	dc400117 	ldw	r17,4(sp)
  80278c:	dc000017 	ldw	r16,0(sp)
  802790:	dec00804 	addi	sp,sp,32
  802794:	f800283a 	ret
  802798:	20fff41e 	bne	r4,r3,80276c <_fpadd_parts+0x1c8>
  80279c:	31000015 	stw	r4,0(r6)
  8027a0:	98800117 	ldw	r2,4(r19)
  8027a4:	30800115 	stw	r2,4(r6)
  8027a8:	98c00217 	ldw	r3,8(r19)
  8027ac:	30c00215 	stw	r3,8(r6)
  8027b0:	98800317 	ldw	r2,12(r19)
  8027b4:	30800315 	stw	r2,12(r6)
  8027b8:	98c00417 	ldw	r3,16(r19)
  8027bc:	30c00415 	stw	r3,16(r6)
  8027c0:	98800117 	ldw	r2,4(r19)
  8027c4:	28c00117 	ldw	r3,4(r5)
  8027c8:	3027883a 	mov	r19,r6
  8027cc:	10c4703a 	and	r2,r2,r3
  8027d0:	30800115 	stw	r2,4(r6)
  8027d4:	003fe506 	br	80276c <_fpadd_parts+0x1c8>
  8027d8:	1dc02616 	blt	r3,r23,802874 <_fpadd_parts+0x2d0>
  8027dc:	0023883a 	mov	r17,zero
  8027e0:	182f883a 	mov	r23,r3
  8027e4:	0025883a 	mov	r18,zero
  8027e8:	003fa806 	br	80268c <_fpadd_parts+0xe8>
  8027ec:	a827883a 	mov	r19,r21
  8027f0:	003fde06 	br	80276c <_fpadd_parts+0x1c8>
  8027f4:	01800044 	movi	r6,1
  8027f8:	500497fa 	slli	r2,r10,31
  8027fc:	4808d07a 	srli	r4,r9,1
  802800:	518ad83a 	srl	r5,r10,r6
  802804:	a2000217 	ldw	r8,8(r20)
  802808:	1108b03a 	or	r4,r2,r4
  80280c:	0007883a 	mov	r3,zero
  802810:	4984703a 	and	r2,r9,r6
  802814:	208cb03a 	or	r6,r4,r2
  802818:	28ceb03a 	or	r7,r5,r3
  80281c:	42000044 	addi	r8,r8,1
  802820:	a027883a 	mov	r19,r20
  802824:	a1c00415 	stw	r7,16(r20)
  802828:	a2000215 	stw	r8,8(r20)
  80282c:	a1800315 	stw	r6,12(r20)
  802830:	003fce06 	br	80276c <_fpadd_parts+0x1c8>
  802834:	8bc5c83a 	sub	r2,r17,r15
  802838:	8889803a 	cmpltu	r4,r17,r2
  80283c:	9407c83a 	sub	r3,r18,r16
  802840:	1909c83a 	sub	r4,r3,r4
  802844:	100d883a 	mov	r6,r2
  802848:	200f883a 	mov	r7,r4
  80284c:	003f9906 	br	8026b4 <_fpadd_parts+0x110>
  802850:	7c45883a 	add	r2,r15,r17
  802854:	13c9803a 	cmpltu	r4,r2,r15
  802858:	8487883a 	add	r3,r16,r18
  80285c:	20c9883a 	add	r4,r4,r3
  802860:	a1400115 	stw	r5,4(r20)
  802864:	a5c00215 	stw	r23,8(r20)
  802868:	a0800315 	stw	r2,12(r20)
  80286c:	a1000415 	stw	r4,16(r20)
  802870:	003fb606 	br	80274c <_fpadd_parts+0x1a8>
  802874:	001f883a 	mov	r15,zero
  802878:	0021883a 	mov	r16,zero
  80287c:	003f8306 	br	80268c <_fpadd_parts+0xe8>
  802880:	018dc83a 	sub	r6,zero,r6
  802884:	003f6706 	br	802624 <_fpadd_parts+0x80>
  802888:	00bfff84 	movi	r2,-2
  80288c:	117faf36 	bltu	r2,r5,80274c <_fpadd_parts+0x1a8>
  802890:	003f9806 	br	8026f4 <_fpadd_parts+0x150>
  802894:	0005883a 	mov	r2,zero
  802898:	1189c83a 	sub	r4,r2,r6
  80289c:	1105803a 	cmpltu	r2,r2,r4
  8028a0:	01cbc83a 	sub	r5,zero,r7
  8028a4:	2885c83a 	sub	r2,r5,r2
  8028a8:	01800044 	movi	r6,1
  8028ac:	a1800115 	stw	r6,4(r20)
  8028b0:	a5c00215 	stw	r23,8(r20)
  8028b4:	a1000315 	stw	r4,12(r20)
  8028b8:	a0800415 	stw	r2,16(r20)
  8028bc:	003f8206 	br	8026c8 <_fpadd_parts+0x124>
  8028c0:	203f7226 	beq	r4,zero,80268c <_fpadd_parts+0xe8>
  8028c4:	35bff804 	addi	r22,r6,-32
  8028c8:	b9af883a 	add	r23,r23,r6
  8028cc:	b0003116 	blt	r22,zero,802994 <_fpadd_parts+0x3f0>
  8028d0:	959ad83a 	srl	r13,r18,r22
  8028d4:	001d883a 	mov	r14,zero
  8028d8:	000f883a 	mov	r7,zero
  8028dc:	01000044 	movi	r4,1
  8028e0:	0011883a 	mov	r8,zero
  8028e4:	b0002516 	blt	r22,zero,80297c <_fpadd_parts+0x3d8>
  8028e8:	2594983a 	sll	r10,r4,r22
  8028ec:	0013883a 	mov	r9,zero
  8028f0:	00bfffc4 	movi	r2,-1
  8028f4:	4889883a 	add	r4,r9,r2
  8028f8:	508b883a 	add	r5,r10,r2
  8028fc:	224d803a 	cmpltu	r6,r4,r9
  802900:	314b883a 	add	r5,r6,r5
  802904:	8904703a 	and	r2,r17,r4
  802908:	9146703a 	and	r3,r18,r5
  80290c:	10c4b03a 	or	r2,r2,r3
  802910:	10000226 	beq	r2,zero,80291c <_fpadd_parts+0x378>
  802914:	01c00044 	movi	r7,1
  802918:	0011883a 	mov	r8,zero
  80291c:	69e2b03a 	or	r17,r13,r7
  802920:	7224b03a 	or	r18,r14,r8
  802924:	003f5906 	br	80268c <_fpadd_parts+0xe8>
  802928:	8407883a 	add	r3,r16,r16
  80292c:	008007c4 	movi	r2,31
  802930:	1185c83a 	sub	r2,r2,r6
  802934:	1886983a 	sll	r3,r3,r2
  802938:	7996d83a 	srl	r11,r15,r6
  80293c:	8198d83a 	srl	r12,r16,r6
  802940:	1ad6b03a 	or	r11,r3,r11
  802944:	003f3e06 	br	802640 <_fpadd_parts+0x9c>
  802948:	2006d07a 	srli	r3,r4,1
  80294c:	008007c4 	movi	r2,31
  802950:	1185c83a 	sub	r2,r2,r6
  802954:	1890d83a 	srl	r8,r3,r2
  802958:	218e983a 	sll	r7,r4,r6
  80295c:	003f3e06 	br	802658 <_fpadd_parts+0xb4>
  802960:	113f821e 	bne	r2,r4,80276c <_fpadd_parts+0x1c8>
  802964:	28c00117 	ldw	r3,4(r5)
  802968:	98800117 	ldw	r2,4(r19)
  80296c:	10ff7f26 	beq	r2,r3,80276c <_fpadd_parts+0x1c8>
  802970:	04c02074 	movhi	r19,129
  802974:	9cd48404 	addi	r19,r19,21008
  802978:	003f7c06 	br	80276c <_fpadd_parts+0x1c8>
  80297c:	2006d07a 	srli	r3,r4,1
  802980:	008007c4 	movi	r2,31
  802984:	1185c83a 	sub	r2,r2,r6
  802988:	1894d83a 	srl	r10,r3,r2
  80298c:	2192983a 	sll	r9,r4,r6
  802990:	003fd706 	br	8028f0 <_fpadd_parts+0x34c>
  802994:	9487883a 	add	r3,r18,r18
  802998:	008007c4 	movi	r2,31
  80299c:	1185c83a 	sub	r2,r2,r6
  8029a0:	1886983a 	sll	r3,r3,r2
  8029a4:	899ad83a 	srl	r13,r17,r6
  8029a8:	919cd83a 	srl	r14,r18,r6
  8029ac:	1b5ab03a 	or	r13,r3,r13
  8029b0:	003fc906 	br	8028d8 <_fpadd_parts+0x334>

008029b4 <__subdf3>:
  8029b4:	deffea04 	addi	sp,sp,-88
  8029b8:	dcc01415 	stw	r19,80(sp)
  8029bc:	dcc00404 	addi	r19,sp,16
  8029c0:	2011883a 	mov	r8,r4
  8029c4:	2813883a 	mov	r9,r5
  8029c8:	dc401315 	stw	r17,76(sp)
  8029cc:	d809883a 	mov	r4,sp
  8029d0:	980b883a 	mov	r5,r19
  8029d4:	dc400904 	addi	r17,sp,36
  8029d8:	dfc01515 	stw	ra,84(sp)
  8029dc:	da400115 	stw	r9,4(sp)
  8029e0:	d9c00315 	stw	r7,12(sp)
  8029e4:	da000015 	stw	r8,0(sp)
  8029e8:	d9800215 	stw	r6,8(sp)
  8029ec:	0803c3c0 	call	803c3c <__unpack_d>
  8029f0:	d9000204 	addi	r4,sp,8
  8029f4:	880b883a 	mov	r5,r17
  8029f8:	0803c3c0 	call	803c3c <__unpack_d>
  8029fc:	d8800a17 	ldw	r2,40(sp)
  802a00:	880b883a 	mov	r5,r17
  802a04:	9809883a 	mov	r4,r19
  802a08:	d9800e04 	addi	r6,sp,56
  802a0c:	1080005c 	xori	r2,r2,1
  802a10:	d8800a15 	stw	r2,40(sp)
  802a14:	08025a40 	call	8025a4 <_fpadd_parts>
  802a18:	1009883a 	mov	r4,r2
  802a1c:	08039280 	call	803928 <__pack_d>
  802a20:	dfc01517 	ldw	ra,84(sp)
  802a24:	dcc01417 	ldw	r19,80(sp)
  802a28:	dc401317 	ldw	r17,76(sp)
  802a2c:	dec01604 	addi	sp,sp,88
  802a30:	f800283a 	ret

00802a34 <__adddf3>:
  802a34:	deffea04 	addi	sp,sp,-88
  802a38:	dcc01415 	stw	r19,80(sp)
  802a3c:	dcc00404 	addi	r19,sp,16
  802a40:	2011883a 	mov	r8,r4
  802a44:	2813883a 	mov	r9,r5
  802a48:	dc401315 	stw	r17,76(sp)
  802a4c:	d809883a 	mov	r4,sp
  802a50:	980b883a 	mov	r5,r19
  802a54:	dc400904 	addi	r17,sp,36
  802a58:	dfc01515 	stw	ra,84(sp)
  802a5c:	da400115 	stw	r9,4(sp)
  802a60:	d9c00315 	stw	r7,12(sp)
  802a64:	da000015 	stw	r8,0(sp)
  802a68:	d9800215 	stw	r6,8(sp)
  802a6c:	0803c3c0 	call	803c3c <__unpack_d>
  802a70:	d9000204 	addi	r4,sp,8
  802a74:	880b883a 	mov	r5,r17
  802a78:	0803c3c0 	call	803c3c <__unpack_d>
  802a7c:	d9800e04 	addi	r6,sp,56
  802a80:	9809883a 	mov	r4,r19
  802a84:	880b883a 	mov	r5,r17
  802a88:	08025a40 	call	8025a4 <_fpadd_parts>
  802a8c:	1009883a 	mov	r4,r2
  802a90:	08039280 	call	803928 <__pack_d>
  802a94:	dfc01517 	ldw	ra,84(sp)
  802a98:	dcc01417 	ldw	r19,80(sp)
  802a9c:	dc401317 	ldw	r17,76(sp)
  802aa0:	dec01604 	addi	sp,sp,88
  802aa4:	f800283a 	ret

00802aa8 <__muldf3>:
  802aa8:	deffe004 	addi	sp,sp,-128
  802aac:	dc401815 	stw	r17,96(sp)
  802ab0:	dc400404 	addi	r17,sp,16
  802ab4:	2011883a 	mov	r8,r4
  802ab8:	2813883a 	mov	r9,r5
  802abc:	dc001715 	stw	r16,92(sp)
  802ac0:	d809883a 	mov	r4,sp
  802ac4:	880b883a 	mov	r5,r17
  802ac8:	dc000904 	addi	r16,sp,36
  802acc:	dfc01f15 	stw	ra,124(sp)
  802ad0:	da400115 	stw	r9,4(sp)
  802ad4:	d9c00315 	stw	r7,12(sp)
  802ad8:	da000015 	stw	r8,0(sp)
  802adc:	d9800215 	stw	r6,8(sp)
  802ae0:	ddc01e15 	stw	r23,120(sp)
  802ae4:	dd801d15 	stw	r22,116(sp)
  802ae8:	dd401c15 	stw	r21,112(sp)
  802aec:	dd001b15 	stw	r20,108(sp)
  802af0:	dcc01a15 	stw	r19,104(sp)
  802af4:	dc801915 	stw	r18,100(sp)
  802af8:	0803c3c0 	call	803c3c <__unpack_d>
  802afc:	d9000204 	addi	r4,sp,8
  802b00:	800b883a 	mov	r5,r16
  802b04:	0803c3c0 	call	803c3c <__unpack_d>
  802b08:	d9000417 	ldw	r4,16(sp)
  802b0c:	00800044 	movi	r2,1
  802b10:	1100102e 	bgeu	r2,r4,802b54 <__muldf3+0xac>
  802b14:	d8c00917 	ldw	r3,36(sp)
  802b18:	10c0062e 	bgeu	r2,r3,802b34 <__muldf3+0x8c>
  802b1c:	00800104 	movi	r2,4
  802b20:	20800a26 	beq	r4,r2,802b4c <__muldf3+0xa4>
  802b24:	1880cc26 	beq	r3,r2,802e58 <__muldf3+0x3b0>
  802b28:	00800084 	movi	r2,2
  802b2c:	20800926 	beq	r4,r2,802b54 <__muldf3+0xac>
  802b30:	1880191e 	bne	r3,r2,802b98 <__muldf3+0xf0>
  802b34:	d8c00a17 	ldw	r3,40(sp)
  802b38:	d8800517 	ldw	r2,20(sp)
  802b3c:	8009883a 	mov	r4,r16
  802b40:	10c4c03a 	cmpne	r2,r2,r3
  802b44:	d8800a15 	stw	r2,40(sp)
  802b48:	00000706 	br	802b68 <__muldf3+0xc0>
  802b4c:	00800084 	movi	r2,2
  802b50:	1880c326 	beq	r3,r2,802e60 <__muldf3+0x3b8>
  802b54:	d8800517 	ldw	r2,20(sp)
  802b58:	d8c00a17 	ldw	r3,40(sp)
  802b5c:	8809883a 	mov	r4,r17
  802b60:	10c4c03a 	cmpne	r2,r2,r3
  802b64:	d8800515 	stw	r2,20(sp)
  802b68:	08039280 	call	803928 <__pack_d>
  802b6c:	dfc01f17 	ldw	ra,124(sp)
  802b70:	ddc01e17 	ldw	r23,120(sp)
  802b74:	dd801d17 	ldw	r22,116(sp)
  802b78:	dd401c17 	ldw	r21,112(sp)
  802b7c:	dd001b17 	ldw	r20,108(sp)
  802b80:	dcc01a17 	ldw	r19,104(sp)
  802b84:	dc801917 	ldw	r18,100(sp)
  802b88:	dc401817 	ldw	r17,96(sp)
  802b8c:	dc001717 	ldw	r16,92(sp)
  802b90:	dec02004 	addi	sp,sp,128
  802b94:	f800283a 	ret
  802b98:	dd800717 	ldw	r22,28(sp)
  802b9c:	dc800c17 	ldw	r18,48(sp)
  802ba0:	002b883a 	mov	r21,zero
  802ba4:	0023883a 	mov	r17,zero
  802ba8:	a80b883a 	mov	r5,r21
  802bac:	b00d883a 	mov	r6,r22
  802bb0:	880f883a 	mov	r7,r17
  802bb4:	ddc00817 	ldw	r23,32(sp)
  802bb8:	dcc00d17 	ldw	r19,52(sp)
  802bbc:	9009883a 	mov	r4,r18
  802bc0:	08035140 	call	803514 <__muldi3>
  802bc4:	001b883a 	mov	r13,zero
  802bc8:	680f883a 	mov	r7,r13
  802bcc:	b009883a 	mov	r4,r22
  802bd0:	000b883a 	mov	r5,zero
  802bd4:	980d883a 	mov	r6,r19
  802bd8:	b82d883a 	mov	r22,r23
  802bdc:	002f883a 	mov	r23,zero
  802be0:	db401615 	stw	r13,88(sp)
  802be4:	d8801315 	stw	r2,76(sp)
  802be8:	d8c01415 	stw	r3,80(sp)
  802bec:	dcc01515 	stw	r19,84(sp)
  802bf0:	08035140 	call	803514 <__muldi3>
  802bf4:	b00d883a 	mov	r6,r22
  802bf8:	000b883a 	mov	r5,zero
  802bfc:	9009883a 	mov	r4,r18
  802c00:	b80f883a 	mov	r7,r23
  802c04:	1021883a 	mov	r16,r2
  802c08:	1823883a 	mov	r17,r3
  802c0c:	08035140 	call	803514 <__muldi3>
  802c10:	8085883a 	add	r2,r16,r2
  802c14:	140d803a 	cmpltu	r6,r2,r16
  802c18:	88c7883a 	add	r3,r17,r3
  802c1c:	30cd883a 	add	r6,r6,r3
  802c20:	1029883a 	mov	r20,r2
  802c24:	302b883a 	mov	r21,r6
  802c28:	da801317 	ldw	r10,76(sp)
  802c2c:	dac01417 	ldw	r11,80(sp)
  802c30:	db001517 	ldw	r12,84(sp)
  802c34:	db401617 	ldw	r13,88(sp)
  802c38:	3440612e 	bgeu	r6,r17,802dc0 <__muldf3+0x318>
  802c3c:	0009883a 	mov	r4,zero
  802c40:	5105883a 	add	r2,r10,r4
  802c44:	128d803a 	cmpltu	r6,r2,r10
  802c48:	5d07883a 	add	r3,r11,r20
  802c4c:	30cd883a 	add	r6,r6,r3
  802c50:	0021883a 	mov	r16,zero
  802c54:	04400044 	movi	r17,1
  802c58:	1025883a 	mov	r18,r2
  802c5c:	3027883a 	mov	r19,r6
  802c60:	32c06236 	bltu	r6,r11,802dec <__muldf3+0x344>
  802c64:	59807a26 	beq	r11,r6,802e50 <__muldf3+0x3a8>
  802c68:	680b883a 	mov	r5,r13
  802c6c:	b80f883a 	mov	r7,r23
  802c70:	6009883a 	mov	r4,r12
  802c74:	b00d883a 	mov	r6,r22
  802c78:	08035140 	call	803514 <__muldi3>
  802c7c:	1009883a 	mov	r4,r2
  802c80:	000f883a 	mov	r7,zero
  802c84:	1545883a 	add	r2,r2,r21
  802c88:	1111803a 	cmpltu	r8,r2,r4
  802c8c:	19c7883a 	add	r3,r3,r7
  802c90:	40c7883a 	add	r3,r8,r3
  802c94:	88cb883a 	add	r5,r17,r3
  802c98:	d8c00617 	ldw	r3,24(sp)
  802c9c:	8089883a 	add	r4,r16,r2
  802ca0:	d8800b17 	ldw	r2,44(sp)
  802ca4:	18c00104 	addi	r3,r3,4
  802ca8:	240d803a 	cmpltu	r6,r4,r16
  802cac:	10c7883a 	add	r3,r2,r3
  802cb0:	2013883a 	mov	r9,r4
  802cb4:	d8800a17 	ldw	r2,40(sp)
  802cb8:	d9000517 	ldw	r4,20(sp)
  802cbc:	314d883a 	add	r6,r6,r5
  802cc0:	3015883a 	mov	r10,r6
  802cc4:	2088c03a 	cmpne	r4,r4,r2
  802cc8:	00880034 	movhi	r2,8192
  802ccc:	10bfffc4 	addi	r2,r2,-1
  802cd0:	d9000f15 	stw	r4,60(sp)
  802cd4:	d8c01015 	stw	r3,64(sp)
  802cd8:	1180162e 	bgeu	r2,r6,802d34 <__muldf3+0x28c>
  802cdc:	1811883a 	mov	r8,r3
  802ce0:	101f883a 	mov	r15,r2
  802ce4:	980497fa 	slli	r2,r19,31
  802ce8:	9016d07a 	srli	r11,r18,1
  802cec:	500697fa 	slli	r3,r10,31
  802cf0:	480cd07a 	srli	r6,r9,1
  802cf4:	500ed07a 	srli	r7,r10,1
  802cf8:	12d6b03a 	or	r11,r2,r11
  802cfc:	00800044 	movi	r2,1
  802d00:	198cb03a 	or	r6,r3,r6
  802d04:	4888703a 	and	r4,r9,r2
  802d08:	9818d07a 	srli	r12,r19,1
  802d0c:	001b883a 	mov	r13,zero
  802d10:	03a00034 	movhi	r14,32768
  802d14:	3013883a 	mov	r9,r6
  802d18:	3815883a 	mov	r10,r7
  802d1c:	4091883a 	add	r8,r8,r2
  802d20:	20000226 	beq	r4,zero,802d2c <__muldf3+0x284>
  802d24:	5b64b03a 	or	r18,r11,r13
  802d28:	63a6b03a 	or	r19,r12,r14
  802d2c:	7abfed36 	bltu	r15,r10,802ce4 <__muldf3+0x23c>
  802d30:	da001015 	stw	r8,64(sp)
  802d34:	00840034 	movhi	r2,4096
  802d38:	10bfffc4 	addi	r2,r2,-1
  802d3c:	12801436 	bltu	r2,r10,802d90 <__muldf3+0x2e8>
  802d40:	da001017 	ldw	r8,64(sp)
  802d44:	101f883a 	mov	r15,r2
  802d48:	4a45883a 	add	r2,r9,r9
  802d4c:	124d803a 	cmpltu	r6,r2,r9
  802d50:	5287883a 	add	r3,r10,r10
  802d54:	9497883a 	add	r11,r18,r18
  802d58:	5c8f803a 	cmpltu	r7,r11,r18
  802d5c:	9cd9883a 	add	r12,r19,r19
  802d60:	01000044 	movi	r4,1
  802d64:	30cd883a 	add	r6,r6,r3
  802d68:	3b0f883a 	add	r7,r7,r12
  802d6c:	423fffc4 	addi	r8,r8,-1
  802d70:	1013883a 	mov	r9,r2
  802d74:	3015883a 	mov	r10,r6
  802d78:	111ab03a 	or	r13,r2,r4
  802d7c:	98003016 	blt	r19,zero,802e40 <__muldf3+0x398>
  802d80:	5825883a 	mov	r18,r11
  802d84:	3827883a 	mov	r19,r7
  802d88:	7abfef2e 	bgeu	r15,r10,802d48 <__muldf3+0x2a0>
  802d8c:	da001015 	stw	r8,64(sp)
  802d90:	00803fc4 	movi	r2,255
  802d94:	488e703a 	and	r7,r9,r2
  802d98:	00802004 	movi	r2,128
  802d9c:	0007883a 	mov	r3,zero
  802da0:	0011883a 	mov	r8,zero
  802da4:	38801826 	beq	r7,r2,802e08 <__muldf3+0x360>
  802da8:	008000c4 	movi	r2,3
  802dac:	d9000e04 	addi	r4,sp,56
  802db0:	da801215 	stw	r10,72(sp)
  802db4:	d8800e15 	stw	r2,56(sp)
  802db8:	da401115 	stw	r9,68(sp)
  802dbc:	003f6a06 	br	802b68 <__muldf3+0xc0>
  802dc0:	89802126 	beq	r17,r6,802e48 <__muldf3+0x3a0>
  802dc4:	0009883a 	mov	r4,zero
  802dc8:	5105883a 	add	r2,r10,r4
  802dcc:	128d803a 	cmpltu	r6,r2,r10
  802dd0:	5d07883a 	add	r3,r11,r20
  802dd4:	30cd883a 	add	r6,r6,r3
  802dd8:	0021883a 	mov	r16,zero
  802ddc:	0023883a 	mov	r17,zero
  802de0:	1025883a 	mov	r18,r2
  802de4:	3027883a 	mov	r19,r6
  802de8:	32ff9e2e 	bgeu	r6,r11,802c64 <__muldf3+0x1bc>
  802dec:	00800044 	movi	r2,1
  802df0:	8089883a 	add	r4,r16,r2
  802df4:	240d803a 	cmpltu	r6,r4,r16
  802df8:	344d883a 	add	r6,r6,r17
  802dfc:	2021883a 	mov	r16,r4
  802e00:	3023883a 	mov	r17,r6
  802e04:	003f9806 	br	802c68 <__muldf3+0x1c0>
  802e08:	403fe71e 	bne	r8,zero,802da8 <__muldf3+0x300>
  802e0c:	01004004 	movi	r4,256
  802e10:	4904703a 	and	r2,r9,r4
  802e14:	10c4b03a 	or	r2,r2,r3
  802e18:	103fe31e 	bne	r2,zero,802da8 <__muldf3+0x300>
  802e1c:	94c4b03a 	or	r2,r18,r19
  802e20:	103fe126 	beq	r2,zero,802da8 <__muldf3+0x300>
  802e24:	49c5883a 	add	r2,r9,r7
  802e28:	1251803a 	cmpltu	r8,r2,r9
  802e2c:	4291883a 	add	r8,r8,r10
  802e30:	013fc004 	movi	r4,-256
  802e34:	1112703a 	and	r9,r2,r4
  802e38:	4015883a 	mov	r10,r8
  802e3c:	003fda06 	br	802da8 <__muldf3+0x300>
  802e40:	6813883a 	mov	r9,r13
  802e44:	003fce06 	br	802d80 <__muldf3+0x2d8>
  802e48:	143f7c36 	bltu	r2,r16,802c3c <__muldf3+0x194>
  802e4c:	003fdd06 	br	802dc4 <__muldf3+0x31c>
  802e50:	12bf852e 	bgeu	r2,r10,802c68 <__muldf3+0x1c0>
  802e54:	003fe506 	br	802dec <__muldf3+0x344>
  802e58:	00800084 	movi	r2,2
  802e5c:	20bf351e 	bne	r4,r2,802b34 <__muldf3+0x8c>
  802e60:	01002074 	movhi	r4,129
  802e64:	21148404 	addi	r4,r4,21008
  802e68:	003f3f06 	br	802b68 <__muldf3+0xc0>

00802e6c <__divdf3>:
  802e6c:	deffed04 	addi	sp,sp,-76
  802e70:	dcc01115 	stw	r19,68(sp)
  802e74:	dcc00404 	addi	r19,sp,16
  802e78:	2011883a 	mov	r8,r4
  802e7c:	2813883a 	mov	r9,r5
  802e80:	dc000e15 	stw	r16,56(sp)
  802e84:	d809883a 	mov	r4,sp
  802e88:	980b883a 	mov	r5,r19
  802e8c:	dc000904 	addi	r16,sp,36
  802e90:	dfc01215 	stw	ra,72(sp)
  802e94:	da400115 	stw	r9,4(sp)
  802e98:	d9c00315 	stw	r7,12(sp)
  802e9c:	da000015 	stw	r8,0(sp)
  802ea0:	d9800215 	stw	r6,8(sp)
  802ea4:	dc801015 	stw	r18,64(sp)
  802ea8:	dc400f15 	stw	r17,60(sp)
  802eac:	0803c3c0 	call	803c3c <__unpack_d>
  802eb0:	d9000204 	addi	r4,sp,8
  802eb4:	800b883a 	mov	r5,r16
  802eb8:	0803c3c0 	call	803c3c <__unpack_d>
  802ebc:	d9000417 	ldw	r4,16(sp)
  802ec0:	00800044 	movi	r2,1
  802ec4:	11000b2e 	bgeu	r2,r4,802ef4 <__divdf3+0x88>
  802ec8:	d9400917 	ldw	r5,36(sp)
  802ecc:	1140762e 	bgeu	r2,r5,8030a8 <__divdf3+0x23c>
  802ed0:	d8800517 	ldw	r2,20(sp)
  802ed4:	d8c00a17 	ldw	r3,40(sp)
  802ed8:	01800104 	movi	r6,4
  802edc:	10c4f03a 	xor	r2,r2,r3
  802ee0:	d8800515 	stw	r2,20(sp)
  802ee4:	21800226 	beq	r4,r6,802ef0 <__divdf3+0x84>
  802ee8:	00800084 	movi	r2,2
  802eec:	2080141e 	bne	r4,r2,802f40 <__divdf3+0xd4>
  802ef0:	29000926 	beq	r5,r4,802f18 <__divdf3+0xac>
  802ef4:	9809883a 	mov	r4,r19
  802ef8:	08039280 	call	803928 <__pack_d>
  802efc:	dfc01217 	ldw	ra,72(sp)
  802f00:	dcc01117 	ldw	r19,68(sp)
  802f04:	dc801017 	ldw	r18,64(sp)
  802f08:	dc400f17 	ldw	r17,60(sp)
  802f0c:	dc000e17 	ldw	r16,56(sp)
  802f10:	dec01304 	addi	sp,sp,76
  802f14:	f800283a 	ret
  802f18:	01002074 	movhi	r4,129
  802f1c:	21148404 	addi	r4,r4,21008
  802f20:	08039280 	call	803928 <__pack_d>
  802f24:	dfc01217 	ldw	ra,72(sp)
  802f28:	dcc01117 	ldw	r19,68(sp)
  802f2c:	dc801017 	ldw	r18,64(sp)
  802f30:	dc400f17 	ldw	r17,60(sp)
  802f34:	dc000e17 	ldw	r16,56(sp)
  802f38:	dec01304 	addi	sp,sp,76
  802f3c:	f800283a 	ret
  802f40:	29805b26 	beq	r5,r6,8030b0 <__divdf3+0x244>
  802f44:	28802d26 	beq	r5,r2,802ffc <__divdf3+0x190>
  802f48:	d8c00617 	ldw	r3,24(sp)
  802f4c:	d8800b17 	ldw	r2,44(sp)
  802f50:	d9c00817 	ldw	r7,32(sp)
  802f54:	dc400d17 	ldw	r17,52(sp)
  802f58:	188bc83a 	sub	r5,r3,r2
  802f5c:	d9800717 	ldw	r6,28(sp)
  802f60:	dc000c17 	ldw	r16,48(sp)
  802f64:	d9400615 	stw	r5,24(sp)
  802f68:	3c403836 	bltu	r7,r17,80304c <__divdf3+0x1e0>
  802f6c:	89c03626 	beq	r17,r7,803048 <__divdf3+0x1dc>
  802f70:	0015883a 	mov	r10,zero
  802f74:	001d883a 	mov	r14,zero
  802f78:	02c40034 	movhi	r11,4096
  802f7c:	001f883a 	mov	r15,zero
  802f80:	003f883a 	mov	ra,zero
  802f84:	04800f44 	movi	r18,61
  802f88:	00000f06 	br	802fc8 <__divdf3+0x15c>
  802f8c:	601d883a 	mov	r14,r12
  802f90:	681f883a 	mov	r15,r13
  802f94:	400d883a 	mov	r6,r8
  802f98:	100f883a 	mov	r7,r2
  802f9c:	3191883a 	add	r8,r6,r6
  802fa0:	5808d07a 	srli	r4,r11,1
  802fa4:	4185803a 	cmpltu	r2,r8,r6
  802fa8:	39d3883a 	add	r9,r7,r7
  802fac:	28c6b03a 	or	r3,r5,r3
  802fb0:	1245883a 	add	r2,r2,r9
  802fb4:	1815883a 	mov	r10,r3
  802fb8:	2017883a 	mov	r11,r4
  802fbc:	400d883a 	mov	r6,r8
  802fc0:	100f883a 	mov	r7,r2
  802fc4:	fc801726 	beq	ra,r18,803024 <__divdf3+0x1b8>
  802fc8:	580a97fa 	slli	r5,r11,31
  802fcc:	5006d07a 	srli	r3,r10,1
  802fd0:	ffc00044 	addi	ra,ra,1
  802fd4:	3c7ff136 	bltu	r7,r17,802f9c <__divdf3+0x130>
  802fd8:	3411c83a 	sub	r8,r6,r16
  802fdc:	3205803a 	cmpltu	r2,r6,r8
  802fe0:	3c53c83a 	sub	r9,r7,r17
  802fe4:	7298b03a 	or	r12,r14,r10
  802fe8:	7adab03a 	or	r13,r15,r11
  802fec:	4885c83a 	sub	r2,r9,r2
  802ff0:	89ffe61e 	bne	r17,r7,802f8c <__divdf3+0x120>
  802ff4:	343fe936 	bltu	r6,r16,802f9c <__divdf3+0x130>
  802ff8:	003fe406 	br	802f8c <__divdf3+0x120>
  802ffc:	9809883a 	mov	r4,r19
  803000:	d9800415 	stw	r6,16(sp)
  803004:	08039280 	call	803928 <__pack_d>
  803008:	dfc01217 	ldw	ra,72(sp)
  80300c:	dcc01117 	ldw	r19,68(sp)
  803010:	dc801017 	ldw	r18,64(sp)
  803014:	dc400f17 	ldw	r17,60(sp)
  803018:	dc000e17 	ldw	r16,56(sp)
  80301c:	dec01304 	addi	sp,sp,76
  803020:	f800283a 	ret
  803024:	00803fc4 	movi	r2,255
  803028:	7090703a 	and	r8,r14,r2
  80302c:	00802004 	movi	r2,128
  803030:	0007883a 	mov	r3,zero
  803034:	0013883a 	mov	r9,zero
  803038:	40800d26 	beq	r8,r2,803070 <__divdf3+0x204>
  80303c:	dbc00815 	stw	r15,32(sp)
  803040:	db800715 	stw	r14,28(sp)
  803044:	003fab06 	br	802ef4 <__divdf3+0x88>
  803048:	343fc92e 	bgeu	r6,r16,802f70 <__divdf3+0x104>
  80304c:	3185883a 	add	r2,r6,r6
  803050:	1189803a 	cmpltu	r4,r2,r6
  803054:	39c7883a 	add	r3,r7,r7
  803058:	20c9883a 	add	r4,r4,r3
  80305c:	297fffc4 	addi	r5,r5,-1
  803060:	100d883a 	mov	r6,r2
  803064:	200f883a 	mov	r7,r4
  803068:	d9400615 	stw	r5,24(sp)
  80306c:	003fc006 	br	802f70 <__divdf3+0x104>
  803070:	483ff21e 	bne	r9,zero,80303c <__divdf3+0x1d0>
  803074:	01004004 	movi	r4,256
  803078:	7104703a 	and	r2,r14,r4
  80307c:	10c4b03a 	or	r2,r2,r3
  803080:	103fee1e 	bne	r2,zero,80303c <__divdf3+0x1d0>
  803084:	31c4b03a 	or	r2,r6,r7
  803088:	103fec26 	beq	r2,zero,80303c <__divdf3+0x1d0>
  80308c:	7205883a 	add	r2,r14,r8
  803090:	1391803a 	cmpltu	r8,r2,r14
  803094:	43d1883a 	add	r8,r8,r15
  803098:	013fc004 	movi	r4,-256
  80309c:	111c703a 	and	r14,r2,r4
  8030a0:	401f883a 	mov	r15,r8
  8030a4:	003fe506 	br	80303c <__divdf3+0x1d0>
  8030a8:	8009883a 	mov	r4,r16
  8030ac:	003f9206 	br	802ef8 <__divdf3+0x8c>
  8030b0:	9809883a 	mov	r4,r19
  8030b4:	d8000715 	stw	zero,28(sp)
  8030b8:	d8000815 	stw	zero,32(sp)
  8030bc:	d8000615 	stw	zero,24(sp)
  8030c0:	003f8d06 	br	802ef8 <__divdf3+0x8c>

008030c4 <__ltdf2>:
  8030c4:	deffef04 	addi	sp,sp,-68
  8030c8:	dc400f15 	stw	r17,60(sp)
  8030cc:	dc400404 	addi	r17,sp,16
  8030d0:	2005883a 	mov	r2,r4
  8030d4:	2807883a 	mov	r3,r5
  8030d8:	dc000e15 	stw	r16,56(sp)
  8030dc:	d809883a 	mov	r4,sp
  8030e0:	880b883a 	mov	r5,r17
  8030e4:	dc000904 	addi	r16,sp,36
  8030e8:	d8c00115 	stw	r3,4(sp)
  8030ec:	d8800015 	stw	r2,0(sp)
  8030f0:	d9800215 	stw	r6,8(sp)
  8030f4:	dfc01015 	stw	ra,64(sp)
  8030f8:	d9c00315 	stw	r7,12(sp)
  8030fc:	0803c3c0 	call	803c3c <__unpack_d>
  803100:	d9000204 	addi	r4,sp,8
  803104:	800b883a 	mov	r5,r16
  803108:	0803c3c0 	call	803c3c <__unpack_d>
  80310c:	d8800417 	ldw	r2,16(sp)
  803110:	00c00044 	movi	r3,1
  803114:	180d883a 	mov	r6,r3
  803118:	1880062e 	bgeu	r3,r2,803134 <__ltdf2+0x70>
  80311c:	d8800917 	ldw	r2,36(sp)
  803120:	8809883a 	mov	r4,r17
  803124:	800b883a 	mov	r5,r16
  803128:	1880022e 	bgeu	r3,r2,803134 <__ltdf2+0x70>
  80312c:	0803d740 	call	803d74 <__fpcmp_parts_d>
  803130:	100d883a 	mov	r6,r2
  803134:	3005883a 	mov	r2,r6
  803138:	dfc01017 	ldw	ra,64(sp)
  80313c:	dc400f17 	ldw	r17,60(sp)
  803140:	dc000e17 	ldw	r16,56(sp)
  803144:	dec01104 	addi	sp,sp,68
  803148:	f800283a 	ret

0080314c <__floatsidf>:
  80314c:	2006d7fa 	srli	r3,r4,31
  803150:	defff604 	addi	sp,sp,-40
  803154:	008000c4 	movi	r2,3
  803158:	dfc00915 	stw	ra,36(sp)
  80315c:	dcc00815 	stw	r19,32(sp)
  803160:	dc800715 	stw	r18,28(sp)
  803164:	dc400615 	stw	r17,24(sp)
  803168:	dc000515 	stw	r16,20(sp)
  80316c:	d8800015 	stw	r2,0(sp)
  803170:	d8c00115 	stw	r3,4(sp)
  803174:	20000f1e 	bne	r4,zero,8031b4 <__floatsidf+0x68>
  803178:	00800084 	movi	r2,2
  80317c:	d8800015 	stw	r2,0(sp)
  803180:	d809883a 	mov	r4,sp
  803184:	08039280 	call	803928 <__pack_d>
  803188:	1009883a 	mov	r4,r2
  80318c:	180b883a 	mov	r5,r3
  803190:	2005883a 	mov	r2,r4
  803194:	2807883a 	mov	r3,r5
  803198:	dfc00917 	ldw	ra,36(sp)
  80319c:	dcc00817 	ldw	r19,32(sp)
  8031a0:	dc800717 	ldw	r18,28(sp)
  8031a4:	dc400617 	ldw	r17,24(sp)
  8031a8:	dc000517 	ldw	r16,20(sp)
  8031ac:	dec00a04 	addi	sp,sp,40
  8031b0:	f800283a 	ret
  8031b4:	00800f04 	movi	r2,60
  8031b8:	1807003a 	cmpeq	r3,r3,zero
  8031bc:	d8800215 	stw	r2,8(sp)
  8031c0:	18001126 	beq	r3,zero,803208 <__floatsidf+0xbc>
  8031c4:	0027883a 	mov	r19,zero
  8031c8:	2025883a 	mov	r18,r4
  8031cc:	d9000315 	stw	r4,12(sp)
  8031d0:	dcc00415 	stw	r19,16(sp)
  8031d4:	08035ac0 	call	8035ac <__clzsi2>
  8031d8:	11000744 	addi	r4,r2,29
  8031dc:	013fe80e 	bge	zero,r4,803180 <__floatsidf+0x34>
  8031e0:	10bfff44 	addi	r2,r2,-3
  8031e4:	10000c16 	blt	r2,zero,803218 <__floatsidf+0xcc>
  8031e8:	90a2983a 	sll	r17,r18,r2
  8031ec:	0021883a 	mov	r16,zero
  8031f0:	d8800217 	ldw	r2,8(sp)
  8031f4:	dc400415 	stw	r17,16(sp)
  8031f8:	dc000315 	stw	r16,12(sp)
  8031fc:	1105c83a 	sub	r2,r2,r4
  803200:	d8800215 	stw	r2,8(sp)
  803204:	003fde06 	br	803180 <__floatsidf+0x34>
  803208:	00a00034 	movhi	r2,32768
  80320c:	20800a26 	beq	r4,r2,803238 <__floatsidf+0xec>
  803210:	0109c83a 	sub	r4,zero,r4
  803214:	003feb06 	br	8031c4 <__floatsidf+0x78>
  803218:	9006d07a 	srli	r3,r18,1
  80321c:	008007c4 	movi	r2,31
  803220:	1105c83a 	sub	r2,r2,r4
  803224:	1886d83a 	srl	r3,r3,r2
  803228:	9922983a 	sll	r17,r19,r4
  80322c:	9120983a 	sll	r16,r18,r4
  803230:	1c62b03a 	or	r17,r3,r17
  803234:	003fee06 	br	8031f0 <__floatsidf+0xa4>
  803238:	0009883a 	mov	r4,zero
  80323c:	01707834 	movhi	r5,49632
  803240:	003fd306 	br	803190 <__floatsidf+0x44>

00803244 <__fixdfsi>:
  803244:	defff804 	addi	sp,sp,-32
  803248:	2005883a 	mov	r2,r4
  80324c:	2807883a 	mov	r3,r5
  803250:	d809883a 	mov	r4,sp
  803254:	d9400204 	addi	r5,sp,8
  803258:	d8c00115 	stw	r3,4(sp)
  80325c:	d8800015 	stw	r2,0(sp)
  803260:	dfc00715 	stw	ra,28(sp)
  803264:	0803c3c0 	call	803c3c <__unpack_d>
  803268:	d8c00217 	ldw	r3,8(sp)
  80326c:	00800084 	movi	r2,2
  803270:	1880051e 	bne	r3,r2,803288 <__fixdfsi+0x44>
  803274:	0007883a 	mov	r3,zero
  803278:	1805883a 	mov	r2,r3
  80327c:	dfc00717 	ldw	ra,28(sp)
  803280:	dec00804 	addi	sp,sp,32
  803284:	f800283a 	ret
  803288:	00800044 	movi	r2,1
  80328c:	10fff92e 	bgeu	r2,r3,803274 <__fixdfsi+0x30>
  803290:	00800104 	movi	r2,4
  803294:	18800426 	beq	r3,r2,8032a8 <__fixdfsi+0x64>
  803298:	d8c00417 	ldw	r3,16(sp)
  80329c:	183ff516 	blt	r3,zero,803274 <__fixdfsi+0x30>
  8032a0:	00800784 	movi	r2,30
  8032a4:	10c0080e 	bge	r2,r3,8032c8 <__fixdfsi+0x84>
  8032a8:	d8800317 	ldw	r2,12(sp)
  8032ac:	1000121e 	bne	r2,zero,8032f8 <__fixdfsi+0xb4>
  8032b0:	00e00034 	movhi	r3,32768
  8032b4:	18ffffc4 	addi	r3,r3,-1
  8032b8:	1805883a 	mov	r2,r3
  8032bc:	dfc00717 	ldw	ra,28(sp)
  8032c0:	dec00804 	addi	sp,sp,32
  8032c4:	f800283a 	ret
  8032c8:	00800f04 	movi	r2,60
  8032cc:	10d1c83a 	sub	r8,r2,r3
  8032d0:	40bff804 	addi	r2,r8,-32
  8032d4:	d9800517 	ldw	r6,20(sp)
  8032d8:	d9c00617 	ldw	r7,24(sp)
  8032dc:	10000816 	blt	r2,zero,803300 <__fixdfsi+0xbc>
  8032e0:	3888d83a 	srl	r4,r7,r2
  8032e4:	d8800317 	ldw	r2,12(sp)
  8032e8:	2007883a 	mov	r3,r4
  8032ec:	103fe226 	beq	r2,zero,803278 <__fixdfsi+0x34>
  8032f0:	0107c83a 	sub	r3,zero,r4
  8032f4:	003fe006 	br	803278 <__fixdfsi+0x34>
  8032f8:	00e00034 	movhi	r3,32768
  8032fc:	003fde06 	br	803278 <__fixdfsi+0x34>
  803300:	39c7883a 	add	r3,r7,r7
  803304:	008007c4 	movi	r2,31
  803308:	1205c83a 	sub	r2,r2,r8
  80330c:	1886983a 	sll	r3,r3,r2
  803310:	3208d83a 	srl	r4,r6,r8
  803314:	1908b03a 	or	r4,r3,r4
  803318:	003ff206 	br	8032e4 <__fixdfsi+0xa0>

0080331c <__make_dp>:
  80331c:	defff904 	addi	sp,sp,-28
  803320:	d8c00717 	ldw	r3,28(sp)
  803324:	d9000015 	stw	r4,0(sp)
  803328:	d809883a 	mov	r4,sp
  80332c:	dfc00515 	stw	ra,20(sp)
  803330:	d9c00615 	stw	r7,24(sp)
  803334:	d9400115 	stw	r5,4(sp)
  803338:	d9800215 	stw	r6,8(sp)
  80333c:	d8c00415 	stw	r3,16(sp)
  803340:	d9c00315 	stw	r7,12(sp)
  803344:	08039280 	call	803928 <__pack_d>
  803348:	dfc00517 	ldw	ra,20(sp)
  80334c:	dec00704 	addi	sp,sp,28
  803350:	f800283a 	ret

00803354 <__truncdfsf2>:
  803354:	defff804 	addi	sp,sp,-32
  803358:	2005883a 	mov	r2,r4
  80335c:	2807883a 	mov	r3,r5
  803360:	d809883a 	mov	r4,sp
  803364:	d9400204 	addi	r5,sp,8
  803368:	d8c00115 	stw	r3,4(sp)
  80336c:	d8800015 	stw	r2,0(sp)
  803370:	dfc00715 	stw	ra,28(sp)
  803374:	0803c3c0 	call	803c3c <__unpack_d>
  803378:	d9c00517 	ldw	r7,20(sp)
  80337c:	da000617 	ldw	r8,24(sp)
  803380:	02d00034 	movhi	r11,16384
  803384:	5affffc4 	addi	r11,r11,-1
  803388:	3812d7ba 	srli	r9,r7,30
  80338c:	401a90ba 	slli	r13,r8,2
  803390:	3ac4703a 	and	r2,r7,r11
  803394:	0007883a 	mov	r3,zero
  803398:	6a52b03a 	or	r9,r13,r9
  80339c:	10c4b03a 	or	r2,r2,r3
  8033a0:	d9000217 	ldw	r4,8(sp)
  8033a4:	d9400317 	ldw	r5,12(sp)
  8033a8:	d9800417 	ldw	r6,16(sp)
  8033ac:	480f883a 	mov	r7,r9
  8033b0:	10000126 	beq	r2,zero,8033b8 <__truncdfsf2+0x64>
  8033b4:	49c00054 	ori	r7,r9,1
  8033b8:	08038fc0 	call	8038fc <__make_fp>
  8033bc:	dfc00717 	ldw	ra,28(sp)
  8033c0:	dec00804 	addi	sp,sp,32
  8033c4:	f800283a 	ret

008033c8 <udivmodsi4>:
  8033c8:	29001b2e 	bgeu	r5,r4,803438 <udivmodsi4+0x70>
  8033cc:	28001a16 	blt	r5,zero,803438 <udivmodsi4+0x70>
  8033d0:	00800044 	movi	r2,1
  8033d4:	0007883a 	mov	r3,zero
  8033d8:	01c007c4 	movi	r7,31
  8033dc:	00000306 	br	8033ec <udivmodsi4+0x24>
  8033e0:	19c01326 	beq	r3,r7,803430 <udivmodsi4+0x68>
  8033e4:	18c00044 	addi	r3,r3,1
  8033e8:	28000416 	blt	r5,zero,8033fc <udivmodsi4+0x34>
  8033ec:	294b883a 	add	r5,r5,r5
  8033f0:	1085883a 	add	r2,r2,r2
  8033f4:	293ffa36 	bltu	r5,r4,8033e0 <udivmodsi4+0x18>
  8033f8:	10000d26 	beq	r2,zero,803430 <udivmodsi4+0x68>
  8033fc:	0007883a 	mov	r3,zero
  803400:	21400236 	bltu	r4,r5,80340c <udivmodsi4+0x44>
  803404:	2149c83a 	sub	r4,r4,r5
  803408:	1886b03a 	or	r3,r3,r2
  80340c:	1004d07a 	srli	r2,r2,1
  803410:	280ad07a 	srli	r5,r5,1
  803414:	103ffa1e 	bne	r2,zero,803400 <udivmodsi4+0x38>
  803418:	30000226 	beq	r6,zero,803424 <udivmodsi4+0x5c>
  80341c:	2005883a 	mov	r2,r4
  803420:	f800283a 	ret
  803424:	1809883a 	mov	r4,r3
  803428:	2005883a 	mov	r2,r4
  80342c:	f800283a 	ret
  803430:	0007883a 	mov	r3,zero
  803434:	003ff806 	br	803418 <udivmodsi4+0x50>
  803438:	00800044 	movi	r2,1
  80343c:	0007883a 	mov	r3,zero
  803440:	003fef06 	br	803400 <udivmodsi4+0x38>

00803444 <__divsi3>:
  803444:	defffe04 	addi	sp,sp,-8
  803448:	dc000015 	stw	r16,0(sp)
  80344c:	dfc00115 	stw	ra,4(sp)
  803450:	0021883a 	mov	r16,zero
  803454:	20000c16 	blt	r4,zero,803488 <__divsi3+0x44>
  803458:	000d883a 	mov	r6,zero
  80345c:	28000e16 	blt	r5,zero,803498 <__divsi3+0x54>
  803460:	08033c80 	call	8033c8 <udivmodsi4>
  803464:	1007883a 	mov	r3,r2
  803468:	8005003a 	cmpeq	r2,r16,zero
  80346c:	1000011e 	bne	r2,zero,803474 <__divsi3+0x30>
  803470:	00c7c83a 	sub	r3,zero,r3
  803474:	1805883a 	mov	r2,r3
  803478:	dfc00117 	ldw	ra,4(sp)
  80347c:	dc000017 	ldw	r16,0(sp)
  803480:	dec00204 	addi	sp,sp,8
  803484:	f800283a 	ret
  803488:	0109c83a 	sub	r4,zero,r4
  80348c:	04000044 	movi	r16,1
  803490:	000d883a 	mov	r6,zero
  803494:	283ff20e 	bge	r5,zero,803460 <__divsi3+0x1c>
  803498:	014bc83a 	sub	r5,zero,r5
  80349c:	8021003a 	cmpeq	r16,r16,zero
  8034a0:	003fef06 	br	803460 <__divsi3+0x1c>

008034a4 <__modsi3>:
  8034a4:	deffff04 	addi	sp,sp,-4
  8034a8:	dfc00015 	stw	ra,0(sp)
  8034ac:	01800044 	movi	r6,1
  8034b0:	2807883a 	mov	r3,r5
  8034b4:	20000416 	blt	r4,zero,8034c8 <__modsi3+0x24>
  8034b8:	28000c16 	blt	r5,zero,8034ec <__modsi3+0x48>
  8034bc:	dfc00017 	ldw	ra,0(sp)
  8034c0:	dec00104 	addi	sp,sp,4
  8034c4:	08033c81 	jmpi	8033c8 <udivmodsi4>
  8034c8:	0109c83a 	sub	r4,zero,r4
  8034cc:	28000b16 	blt	r5,zero,8034fc <__modsi3+0x58>
  8034d0:	180b883a 	mov	r5,r3
  8034d4:	01800044 	movi	r6,1
  8034d8:	08033c80 	call	8033c8 <udivmodsi4>
  8034dc:	0085c83a 	sub	r2,zero,r2
  8034e0:	dfc00017 	ldw	ra,0(sp)
  8034e4:	dec00104 	addi	sp,sp,4
  8034e8:	f800283a 	ret
  8034ec:	014bc83a 	sub	r5,zero,r5
  8034f0:	dfc00017 	ldw	ra,0(sp)
  8034f4:	dec00104 	addi	sp,sp,4
  8034f8:	08033c81 	jmpi	8033c8 <udivmodsi4>
  8034fc:	0147c83a 	sub	r3,zero,r5
  803500:	003ff306 	br	8034d0 <__modsi3+0x2c>

00803504 <__udivsi3>:
  803504:	000d883a 	mov	r6,zero
  803508:	08033c81 	jmpi	8033c8 <udivmodsi4>

0080350c <__umodsi3>:
  80350c:	01800044 	movi	r6,1
  803510:	08033c81 	jmpi	8033c8 <udivmodsi4>

00803514 <__muldi3>:
  803514:	2011883a 	mov	r8,r4
  803518:	427fffcc 	andi	r9,r8,65535
  80351c:	4018d43a 	srli	r12,r8,16
  803520:	32bfffcc 	andi	r10,r6,65535
  803524:	3016d43a 	srli	r11,r6,16
  803528:	4a85383a 	mul	r2,r9,r10
  80352c:	6295383a 	mul	r10,r12,r10
  803530:	4ad3383a 	mul	r9,r9,r11
  803534:	113fffcc 	andi	r4,r2,65535
  803538:	1004d43a 	srli	r2,r2,16
  80353c:	4a93883a 	add	r9,r9,r10
  803540:	3807883a 	mov	r3,r7
  803544:	1245883a 	add	r2,r2,r9
  803548:	280f883a 	mov	r7,r5
  80354c:	180b883a 	mov	r5,r3
  803550:	1006943a 	slli	r3,r2,16
  803554:	defffd04 	addi	sp,sp,-12
  803558:	dc800215 	stw	r18,8(sp)
  80355c:	1907883a 	add	r3,r3,r4
  803560:	dc400115 	stw	r17,4(sp)
  803564:	dc000015 	stw	r16,0(sp)
  803568:	4165383a 	mul	r18,r8,r5
  80356c:	31e3383a 	mul	r17,r6,r7
  803570:	1012d43a 	srli	r9,r2,16
  803574:	62d9383a 	mul	r12,r12,r11
  803578:	181f883a 	mov	r15,r3
  80357c:	1280022e 	bgeu	r2,r10,803588 <__muldi3+0x74>
  803580:	00800074 	movhi	r2,1
  803584:	6099883a 	add	r12,r12,r2
  803588:	624d883a 	add	r6,r12,r9
  80358c:	9187883a 	add	r3,r18,r6
  803590:	88c7883a 	add	r3,r17,r3
  803594:	7805883a 	mov	r2,r15
  803598:	dc800217 	ldw	r18,8(sp)
  80359c:	dc400117 	ldw	r17,4(sp)
  8035a0:	dc000017 	ldw	r16,0(sp)
  8035a4:	dec00304 	addi	sp,sp,12
  8035a8:	f800283a 	ret

008035ac <__clzsi2>:
  8035ac:	00bfffd4 	movui	r2,65535
  8035b0:	11000e36 	bltu	r2,r4,8035ec <__clzsi2+0x40>
  8035b4:	00803fc4 	movi	r2,255
  8035b8:	01400204 	movi	r5,8
  8035bc:	0007883a 	mov	r3,zero
  8035c0:	11001036 	bltu	r2,r4,803604 <__clzsi2+0x58>
  8035c4:	000b883a 	mov	r5,zero
  8035c8:	20c6d83a 	srl	r3,r4,r3
  8035cc:	00802074 	movhi	r2,129
  8035d0:	10948904 	addi	r2,r2,21028
  8035d4:	1887883a 	add	r3,r3,r2
  8035d8:	18800003 	ldbu	r2,0(r3)
  8035dc:	00c00804 	movi	r3,32
  8035e0:	2885883a 	add	r2,r5,r2
  8035e4:	1885c83a 	sub	r2,r3,r2
  8035e8:	f800283a 	ret
  8035ec:	01400404 	movi	r5,16
  8035f0:	00804034 	movhi	r2,256
  8035f4:	10bfffc4 	addi	r2,r2,-1
  8035f8:	2807883a 	mov	r3,r5
  8035fc:	113ff22e 	bgeu	r2,r4,8035c8 <__clzsi2+0x1c>
  803600:	01400604 	movi	r5,24
  803604:	2807883a 	mov	r3,r5
  803608:	20c6d83a 	srl	r3,r4,r3
  80360c:	00802074 	movhi	r2,129
  803610:	10948904 	addi	r2,r2,21028
  803614:	1887883a 	add	r3,r3,r2
  803618:	18800003 	ldbu	r2,0(r3)
  80361c:	00c00804 	movi	r3,32
  803620:	2885883a 	add	r2,r5,r2
  803624:	1885c83a 	sub	r2,r3,r2
  803628:	f800283a 	ret

0080362c <__pack_f>:
  80362c:	20c00017 	ldw	r3,0(r4)
  803630:	01c00044 	movi	r7,1
  803634:	21800317 	ldw	r6,12(r4)
  803638:	21400117 	ldw	r5,4(r4)
  80363c:	38c02d2e 	bgeu	r7,r3,8036f4 <__pack_f+0xc8>
  803640:	00800104 	movi	r2,4
  803644:	18802826 	beq	r3,r2,8036e8 <__pack_f+0xbc>
  803648:	00800084 	movi	r2,2
  80364c:	18800126 	beq	r3,r2,803654 <__pack_f+0x28>
  803650:	3000101e 	bne	r6,zero,803694 <__pack_f+0x68>
  803654:	000d883a 	mov	r6,zero
  803658:	0007883a 	mov	r3,zero
  80365c:	19003fcc 	andi	r4,r3,255
  803660:	200895fa 	slli	r4,r4,23
  803664:	00c02034 	movhi	r3,128
  803668:	18ffffc4 	addi	r3,r3,-1
  80366c:	30c6703a 	and	r3,r6,r3
  803670:	10a0002c 	andhi	r2,r2,32768
  803674:	10c4b03a 	or	r2,r2,r3
  803678:	280a97fa 	slli	r5,r5,31
  80367c:	1104b03a 	or	r2,r2,r4
  803680:	00e00034 	movhi	r3,32768
  803684:	18ffffc4 	addi	r3,r3,-1
  803688:	10c4703a 	and	r2,r2,r3
  80368c:	1144b03a 	or	r2,r2,r5
  803690:	f800283a 	ret
  803694:	21000217 	ldw	r4,8(r4)
  803698:	00bfe084 	movi	r2,-126
  80369c:	20801b16 	blt	r4,r2,80370c <__pack_f+0xe0>
  8036a0:	00801fc4 	movi	r2,127
  8036a4:	11001016 	blt	r2,r4,8036e8 <__pack_f+0xbc>
  8036a8:	308e703a 	and	r7,r6,r2
  8036ac:	2087883a 	add	r3,r4,r2
  8036b0:	00801004 	movi	r2,64
  8036b4:	38800526 	beq	r7,r2,8036cc <__pack_f+0xa0>
  8036b8:	31800fc4 	addi	r6,r6,63
  8036bc:	30000716 	blt	r6,zero,8036dc <__pack_f+0xb0>
  8036c0:	300490ba 	slli	r2,r6,2
  8036c4:	100cd27a 	srli	r6,r2,9
  8036c8:	003fe406 	br	80365c <__pack_f+0x30>
  8036cc:	3080200c 	andi	r2,r6,128
  8036d0:	103ffa26 	beq	r2,zero,8036bc <__pack_f+0x90>
  8036d4:	31cd883a 	add	r6,r6,r7
  8036d8:	003ff806 	br	8036bc <__pack_f+0x90>
  8036dc:	300cd07a 	srli	r6,r6,1
  8036e0:	18c00044 	addi	r3,r3,1
  8036e4:	003ff606 	br	8036c0 <__pack_f+0x94>
  8036e8:	000d883a 	mov	r6,zero
  8036ec:	00ffffc4 	movi	r3,-1
  8036f0:	003fda06 	br	80365c <__pack_f+0x30>
  8036f4:	31800434 	orhi	r6,r6,16
  8036f8:	00802034 	movhi	r2,128
  8036fc:	10bfffc4 	addi	r2,r2,-1
  803700:	308c703a 	and	r6,r6,r2
  803704:	00ffffc4 	movi	r3,-1
  803708:	003fd406 	br	80365c <__pack_f+0x30>
  80370c:	1109c83a 	sub	r4,r2,r4
  803710:	00800644 	movi	r2,25
  803714:	11001216 	blt	r2,r4,803760 <__pack_f+0x134>
  803718:	3904983a 	sll	r2,r7,r4
  80371c:	3106d83a 	srl	r3,r6,r4
  803720:	10bfffc4 	addi	r2,r2,-1
  803724:	3084703a 	and	r2,r6,r2
  803728:	1004c03a 	cmpne	r2,r2,zero
  80372c:	1886b03a 	or	r3,r3,r2
  803730:	19001fcc 	andi	r4,r3,127
  803734:	00801004 	movi	r2,64
  803738:	20800c26 	beq	r4,r2,80376c <__pack_f+0x140>
  80373c:	18c00fc4 	addi	r3,r3,63
  803740:	00900034 	movhi	r2,16384
  803744:	10bfffc4 	addi	r2,r2,-1
  803748:	180cd1fa 	srli	r6,r3,7
  80374c:	10c7803a 	cmpltu	r3,r2,r3
  803750:	00802034 	movhi	r2,128
  803754:	10bfffc4 	addi	r2,r2,-1
  803758:	308c703a 	and	r6,r6,r2
  80375c:	003fbf06 	br	80365c <__pack_f+0x30>
  803760:	0007883a 	mov	r3,zero
  803764:	000d883a 	mov	r6,zero
  803768:	003ff906 	br	803750 <__pack_f+0x124>
  80376c:	1880200c 	andi	r2,r3,128
  803770:	10000126 	beq	r2,zero,803778 <__pack_f+0x14c>
  803774:	1907883a 	add	r3,r3,r4
  803778:	180cd1fa 	srli	r6,r3,7
  80377c:	00900034 	movhi	r2,16384
  803780:	10bfffc4 	addi	r2,r2,-1
  803784:	10c7803a 	cmpltu	r3,r2,r3
  803788:	003ff106 	br	803750 <__pack_f+0x124>

0080378c <__unpack_f>:
  80378c:	21800017 	ldw	r6,0(r4)
  803790:	00c02034 	movhi	r3,128
  803794:	18ffffc4 	addi	r3,r3,-1
  803798:	3004d5fa 	srli	r2,r6,23
  80379c:	3008d7fa 	srli	r4,r6,31
  8037a0:	30ce703a 	and	r7,r6,r3
  8037a4:	10c03fcc 	andi	r3,r2,255
  8037a8:	29000115 	stw	r4,4(r5)
  8037ac:	1800131e 	bne	r3,zero,8037fc <__unpack_f+0x70>
  8037b0:	38000f26 	beq	r7,zero,8037f0 <__unpack_f+0x64>
  8037b4:	380691fa 	slli	r3,r7,7
  8037b8:	01bfe084 	movi	r6,-126
  8037bc:	008000c4 	movi	r2,3
  8037c0:	01100034 	movhi	r4,16384
  8037c4:	213fffc4 	addi	r4,r4,-1
  8037c8:	28800015 	stw	r2,0(r5)
  8037cc:	29800215 	stw	r6,8(r5)
  8037d0:	20c00536 	bltu	r4,r3,8037e8 <__unpack_f+0x5c>
  8037d4:	3005883a 	mov	r2,r6
  8037d8:	18c7883a 	add	r3,r3,r3
  8037dc:	10bfffc4 	addi	r2,r2,-1
  8037e0:	20fffd2e 	bgeu	r4,r3,8037d8 <__unpack_f+0x4c>
  8037e4:	28800215 	stw	r2,8(r5)
  8037e8:	28c00315 	stw	r3,12(r5)
  8037ec:	f800283a 	ret
  8037f0:	00800084 	movi	r2,2
  8037f4:	28800015 	stw	r2,0(r5)
  8037f8:	f800283a 	ret
  8037fc:	00803fc4 	movi	r2,255
  803800:	18800826 	beq	r3,r2,803824 <__unpack_f+0x98>
  803804:	380491fa 	slli	r2,r7,7
  803808:	18ffe044 	addi	r3,r3,-127
  80380c:	28c00215 	stw	r3,8(r5)
  803810:	10900034 	orhi	r2,r2,16384
  803814:	28800315 	stw	r2,12(r5)
  803818:	008000c4 	movi	r2,3
  80381c:	28800015 	stw	r2,0(r5)
  803820:	f800283a 	ret
  803824:	3800031e 	bne	r7,zero,803834 <__unpack_f+0xa8>
  803828:	00800104 	movi	r2,4
  80382c:	28800015 	stw	r2,0(r5)
  803830:	f800283a 	ret
  803834:	3080042c 	andhi	r2,r6,16
  803838:	10000426 	beq	r2,zero,80384c <__unpack_f+0xc0>
  80383c:	00800044 	movi	r2,1
  803840:	28800015 	stw	r2,0(r5)
  803844:	29c00315 	stw	r7,12(r5)
  803848:	f800283a 	ret
  80384c:	28000015 	stw	zero,0(r5)
  803850:	003ffc06 	br	803844 <__unpack_f+0xb8>

00803854 <__fpcmp_parts_f>:
  803854:	21800017 	ldw	r6,0(r4)
  803858:	00c00044 	movi	r3,1
  80385c:	19800a2e 	bgeu	r3,r6,803888 <__fpcmp_parts_f+0x34>
  803860:	28800017 	ldw	r2,0(r5)
  803864:	1880082e 	bgeu	r3,r2,803888 <__fpcmp_parts_f+0x34>
  803868:	00c00104 	movi	r3,4
  80386c:	30c01e26 	beq	r6,r3,8038e8 <__fpcmp_parts_f+0x94>
  803870:	10c01a26 	beq	r2,r3,8038dc <__fpcmp_parts_f+0x88>
  803874:	00c00084 	movi	r3,2
  803878:	30c00526 	beq	r6,r3,803890 <__fpcmp_parts_f+0x3c>
  80387c:	10c0071e 	bne	r2,r3,80389c <__fpcmp_parts_f+0x48>
  803880:	20800117 	ldw	r2,4(r4)
  803884:	1000091e 	bne	r2,zero,8038ac <__fpcmp_parts_f+0x58>
  803888:	00800044 	movi	r2,1
  80388c:	f800283a 	ret
  803890:	10c0121e 	bne	r2,r3,8038dc <__fpcmp_parts_f+0x88>
  803894:	0005883a 	mov	r2,zero
  803898:	f800283a 	ret
  80389c:	20c00117 	ldw	r3,4(r4)
  8038a0:	28800117 	ldw	r2,4(r5)
  8038a4:	18800326 	beq	r3,r2,8038b4 <__fpcmp_parts_f+0x60>
  8038a8:	183ff726 	beq	r3,zero,803888 <__fpcmp_parts_f+0x34>
  8038ac:	00bfffc4 	movi	r2,-1
  8038b0:	f800283a 	ret
  8038b4:	21800217 	ldw	r6,8(r4)
  8038b8:	28800217 	ldw	r2,8(r5)
  8038bc:	11bffa16 	blt	r2,r6,8038a8 <__fpcmp_parts_f+0x54>
  8038c0:	30800416 	blt	r6,r2,8038d4 <__fpcmp_parts_f+0x80>
  8038c4:	21000317 	ldw	r4,12(r4)
  8038c8:	29400317 	ldw	r5,12(r5)
  8038cc:	293ff636 	bltu	r5,r4,8038a8 <__fpcmp_parts_f+0x54>
  8038d0:	217ff02e 	bgeu	r4,r5,803894 <__fpcmp_parts_f+0x40>
  8038d4:	183fec1e 	bne	r3,zero,803888 <__fpcmp_parts_f+0x34>
  8038d8:	003ff406 	br	8038ac <__fpcmp_parts_f+0x58>
  8038dc:	28800117 	ldw	r2,4(r5)
  8038e0:	103fe91e 	bne	r2,zero,803888 <__fpcmp_parts_f+0x34>
  8038e4:	003ff106 	br	8038ac <__fpcmp_parts_f+0x58>
  8038e8:	11bfe51e 	bne	r2,r6,803880 <__fpcmp_parts_f+0x2c>
  8038ec:	28c00117 	ldw	r3,4(r5)
  8038f0:	20800117 	ldw	r2,4(r4)
  8038f4:	1885c83a 	sub	r2,r3,r2
  8038f8:	f800283a 	ret

008038fc <__make_fp>:
  8038fc:	defffb04 	addi	sp,sp,-20
  803900:	d9000015 	stw	r4,0(sp)
  803904:	d809883a 	mov	r4,sp
  803908:	dfc00415 	stw	ra,16(sp)
  80390c:	d9400115 	stw	r5,4(sp)
  803910:	d9800215 	stw	r6,8(sp)
  803914:	d9c00315 	stw	r7,12(sp)
  803918:	080362c0 	call	80362c <__pack_f>
  80391c:	dfc00417 	ldw	ra,16(sp)
  803920:	dec00504 	addi	sp,sp,20
  803924:	f800283a 	ret

00803928 <__pack_d>:
  803928:	20c00017 	ldw	r3,0(r4)
  80392c:	defffd04 	addi	sp,sp,-12
  803930:	dc000015 	stw	r16,0(sp)
  803934:	dc800215 	stw	r18,8(sp)
  803938:	dc400115 	stw	r17,4(sp)
  80393c:	00800044 	movi	r2,1
  803940:	22000317 	ldw	r8,12(r4)
  803944:	001f883a 	mov	r15,zero
  803948:	22400417 	ldw	r9,16(r4)
  80394c:	24000117 	ldw	r16,4(r4)
  803950:	10c0552e 	bgeu	r2,r3,803aa8 <__pack_d+0x180>
  803954:	00800104 	movi	r2,4
  803958:	18804f26 	beq	r3,r2,803a98 <__pack_d+0x170>
  80395c:	00800084 	movi	r2,2
  803960:	18800226 	beq	r3,r2,80396c <__pack_d+0x44>
  803964:	4244b03a 	or	r2,r8,r9
  803968:	10001a1e 	bne	r2,zero,8039d4 <__pack_d+0xac>
  80396c:	000d883a 	mov	r6,zero
  803970:	000f883a 	mov	r7,zero
  803974:	0011883a 	mov	r8,zero
  803978:	00800434 	movhi	r2,16
  80397c:	10bfffc4 	addi	r2,r2,-1
  803980:	301d883a 	mov	r14,r6
  803984:	3884703a 	and	r2,r7,r2
  803988:	400a953a 	slli	r5,r8,20
  80398c:	79bffc2c 	andhi	r6,r15,65520
  803990:	308cb03a 	or	r6,r6,r2
  803994:	00e00434 	movhi	r3,32784
  803998:	18ffffc4 	addi	r3,r3,-1
  80399c:	800497fa 	slli	r2,r16,31
  8039a0:	30c6703a 	and	r3,r6,r3
  8039a4:	1946b03a 	or	r3,r3,r5
  8039a8:	01600034 	movhi	r5,32768
  8039ac:	297fffc4 	addi	r5,r5,-1
  8039b0:	194a703a 	and	r5,r3,r5
  8039b4:	288ab03a 	or	r5,r5,r2
  8039b8:	2807883a 	mov	r3,r5
  8039bc:	7005883a 	mov	r2,r14
  8039c0:	dc800217 	ldw	r18,8(sp)
  8039c4:	dc400117 	ldw	r17,4(sp)
  8039c8:	dc000017 	ldw	r16,0(sp)
  8039cc:	dec00304 	addi	sp,sp,12
  8039d0:	f800283a 	ret
  8039d4:	21000217 	ldw	r4,8(r4)
  8039d8:	00bf0084 	movi	r2,-1022
  8039dc:	20803f16 	blt	r4,r2,803adc <__pack_d+0x1b4>
  8039e0:	0080ffc4 	movi	r2,1023
  8039e4:	11002c16 	blt	r2,r4,803a98 <__pack_d+0x170>
  8039e8:	00803fc4 	movi	r2,255
  8039ec:	408c703a 	and	r6,r8,r2
  8039f0:	00802004 	movi	r2,128
  8039f4:	0007883a 	mov	r3,zero
  8039f8:	000f883a 	mov	r7,zero
  8039fc:	2280ffc4 	addi	r10,r4,1023
  803a00:	30801e26 	beq	r6,r2,803a7c <__pack_d+0x154>
  803a04:	00801fc4 	movi	r2,127
  803a08:	4089883a 	add	r4,r8,r2
  803a0c:	220d803a 	cmpltu	r6,r4,r8
  803a10:	324d883a 	add	r6,r6,r9
  803a14:	2011883a 	mov	r8,r4
  803a18:	3013883a 	mov	r9,r6
  803a1c:	00880034 	movhi	r2,8192
  803a20:	10bfffc4 	addi	r2,r2,-1
  803a24:	12400d36 	bltu	r2,r9,803a5c <__pack_d+0x134>
  803a28:	4804963a 	slli	r2,r9,24
  803a2c:	400cd23a 	srli	r6,r8,8
  803a30:	480ed23a 	srli	r7,r9,8
  803a34:	013fffc4 	movi	r4,-1
  803a38:	118cb03a 	or	r6,r2,r6
  803a3c:	01400434 	movhi	r5,16
  803a40:	297fffc4 	addi	r5,r5,-1
  803a44:	3104703a 	and	r2,r6,r4
  803a48:	3946703a 	and	r3,r7,r5
  803a4c:	5201ffcc 	andi	r8,r10,2047
  803a50:	100d883a 	mov	r6,r2
  803a54:	180f883a 	mov	r7,r3
  803a58:	003fc706 	br	803978 <__pack_d+0x50>
  803a5c:	480897fa 	slli	r4,r9,31
  803a60:	4004d07a 	srli	r2,r8,1
  803a64:	4806d07a 	srli	r3,r9,1
  803a68:	52800044 	addi	r10,r10,1
  803a6c:	2084b03a 	or	r2,r4,r2
  803a70:	1011883a 	mov	r8,r2
  803a74:	1813883a 	mov	r9,r3
  803a78:	003feb06 	br	803a28 <__pack_d+0x100>
  803a7c:	383fe11e 	bne	r7,zero,803a04 <__pack_d+0xdc>
  803a80:	01004004 	movi	r4,256
  803a84:	4104703a 	and	r2,r8,r4
  803a88:	10c4b03a 	or	r2,r2,r3
  803a8c:	103fe326 	beq	r2,zero,803a1c <__pack_d+0xf4>
  803a90:	3005883a 	mov	r2,r6
  803a94:	003fdc06 	br	803a08 <__pack_d+0xe0>
  803a98:	000d883a 	mov	r6,zero
  803a9c:	000f883a 	mov	r7,zero
  803aa0:	0201ffc4 	movi	r8,2047
  803aa4:	003fb406 	br	803978 <__pack_d+0x50>
  803aa8:	0005883a 	mov	r2,zero
  803aac:	00c00234 	movhi	r3,8
  803ab0:	408cb03a 	or	r6,r8,r2
  803ab4:	48ceb03a 	or	r7,r9,r3
  803ab8:	013fffc4 	movi	r4,-1
  803abc:	01400434 	movhi	r5,16
  803ac0:	297fffc4 	addi	r5,r5,-1
  803ac4:	3104703a 	and	r2,r6,r4
  803ac8:	3946703a 	and	r3,r7,r5
  803acc:	100d883a 	mov	r6,r2
  803ad0:	180f883a 	mov	r7,r3
  803ad4:	0201ffc4 	movi	r8,2047
  803ad8:	003fa706 	br	803978 <__pack_d+0x50>
  803adc:	1109c83a 	sub	r4,r2,r4
  803ae0:	00800e04 	movi	r2,56
  803ae4:	11004316 	blt	r2,r4,803bf4 <__pack_d+0x2cc>
  803ae8:	21fff804 	addi	r7,r4,-32
  803aec:	38004516 	blt	r7,zero,803c04 <__pack_d+0x2dc>
  803af0:	49d8d83a 	srl	r12,r9,r7
  803af4:	001b883a 	mov	r13,zero
  803af8:	0023883a 	mov	r17,zero
  803afc:	01400044 	movi	r5,1
  803b00:	0025883a 	mov	r18,zero
  803b04:	38004716 	blt	r7,zero,803c24 <__pack_d+0x2fc>
  803b08:	29d6983a 	sll	r11,r5,r7
  803b0c:	0015883a 	mov	r10,zero
  803b10:	00bfffc4 	movi	r2,-1
  803b14:	5089883a 	add	r4,r10,r2
  803b18:	588b883a 	add	r5,r11,r2
  803b1c:	228d803a 	cmpltu	r6,r4,r10
  803b20:	314b883a 	add	r5,r6,r5
  803b24:	4104703a 	and	r2,r8,r4
  803b28:	4946703a 	and	r3,r9,r5
  803b2c:	10c4b03a 	or	r2,r2,r3
  803b30:	10000226 	beq	r2,zero,803b3c <__pack_d+0x214>
  803b34:	04400044 	movi	r17,1
  803b38:	0025883a 	mov	r18,zero
  803b3c:	00803fc4 	movi	r2,255
  803b40:	644eb03a 	or	r7,r12,r17
  803b44:	3892703a 	and	r9,r7,r2
  803b48:	00802004 	movi	r2,128
  803b4c:	6c90b03a 	or	r8,r13,r18
  803b50:	0015883a 	mov	r10,zero
  803b54:	48801626 	beq	r9,r2,803bb0 <__pack_d+0x288>
  803b58:	01001fc4 	movi	r4,127
  803b5c:	3905883a 	add	r2,r7,r4
  803b60:	11cd803a 	cmpltu	r6,r2,r7
  803b64:	320d883a 	add	r6,r6,r8
  803b68:	100f883a 	mov	r7,r2
  803b6c:	00840034 	movhi	r2,4096
  803b70:	10bfffc4 	addi	r2,r2,-1
  803b74:	3011883a 	mov	r8,r6
  803b78:	0007883a 	mov	r3,zero
  803b7c:	11801b36 	bltu	r2,r6,803bec <__pack_d+0x2c4>
  803b80:	4004963a 	slli	r2,r8,24
  803b84:	3808d23a 	srli	r4,r7,8
  803b88:	400ad23a 	srli	r5,r8,8
  803b8c:	1813883a 	mov	r9,r3
  803b90:	1108b03a 	or	r4,r2,r4
  803b94:	00bfffc4 	movi	r2,-1
  803b98:	00c00434 	movhi	r3,16
  803b9c:	18ffffc4 	addi	r3,r3,-1
  803ba0:	208c703a 	and	r6,r4,r2
  803ba4:	28ce703a 	and	r7,r5,r3
  803ba8:	4a01ffcc 	andi	r8,r9,2047
  803bac:	003f7206 	br	803978 <__pack_d+0x50>
  803bb0:	503fe91e 	bne	r10,zero,803b58 <__pack_d+0x230>
  803bb4:	01004004 	movi	r4,256
  803bb8:	3904703a 	and	r2,r7,r4
  803bbc:	0007883a 	mov	r3,zero
  803bc0:	10c4b03a 	or	r2,r2,r3
  803bc4:	10000626 	beq	r2,zero,803be0 <__pack_d+0x2b8>
  803bc8:	3a45883a 	add	r2,r7,r9
  803bcc:	11cd803a 	cmpltu	r6,r2,r7
  803bd0:	320d883a 	add	r6,r6,r8
  803bd4:	100f883a 	mov	r7,r2
  803bd8:	3011883a 	mov	r8,r6
  803bdc:	0007883a 	mov	r3,zero
  803be0:	00840034 	movhi	r2,4096
  803be4:	10bfffc4 	addi	r2,r2,-1
  803be8:	123fe52e 	bgeu	r2,r8,803b80 <__pack_d+0x258>
  803bec:	00c00044 	movi	r3,1
  803bf0:	003fe306 	br	803b80 <__pack_d+0x258>
  803bf4:	0009883a 	mov	r4,zero
  803bf8:	0013883a 	mov	r9,zero
  803bfc:	000b883a 	mov	r5,zero
  803c00:	003fe406 	br	803b94 <__pack_d+0x26c>
  803c04:	4a47883a 	add	r3,r9,r9
  803c08:	008007c4 	movi	r2,31
  803c0c:	1105c83a 	sub	r2,r2,r4
  803c10:	1886983a 	sll	r3,r3,r2
  803c14:	4118d83a 	srl	r12,r8,r4
  803c18:	491ad83a 	srl	r13,r9,r4
  803c1c:	1b18b03a 	or	r12,r3,r12
  803c20:	003fb506 	br	803af8 <__pack_d+0x1d0>
  803c24:	2806d07a 	srli	r3,r5,1
  803c28:	008007c4 	movi	r2,31
  803c2c:	1105c83a 	sub	r2,r2,r4
  803c30:	1896d83a 	srl	r11,r3,r2
  803c34:	2914983a 	sll	r10,r5,r4
  803c38:	003fb506 	br	803b10 <__pack_d+0x1e8>

00803c3c <__unpack_d>:
  803c3c:	20c00117 	ldw	r3,4(r4)
  803c40:	22400017 	ldw	r9,0(r4)
  803c44:	00800434 	movhi	r2,16
  803c48:	10bfffc4 	addi	r2,r2,-1
  803c4c:	1808d53a 	srli	r4,r3,20
  803c50:	180cd7fa 	srli	r6,r3,31
  803c54:	1894703a 	and	r10,r3,r2
  803c58:	2201ffcc 	andi	r8,r4,2047
  803c5c:	281b883a 	mov	r13,r5
  803c60:	4817883a 	mov	r11,r9
  803c64:	29800115 	stw	r6,4(r5)
  803c68:	5019883a 	mov	r12,r10
  803c6c:	40001e1e 	bne	r8,zero,803ce8 <__unpack_d+0xac>
  803c70:	4a84b03a 	or	r2,r9,r10
  803c74:	10001926 	beq	r2,zero,803cdc <__unpack_d+0xa0>
  803c78:	4804d63a 	srli	r2,r9,24
  803c7c:	500c923a 	slli	r6,r10,8
  803c80:	013f0084 	movi	r4,-1022
  803c84:	00c40034 	movhi	r3,4096
  803c88:	18ffffc4 	addi	r3,r3,-1
  803c8c:	118cb03a 	or	r6,r2,r6
  803c90:	008000c4 	movi	r2,3
  803c94:	480a923a 	slli	r5,r9,8
  803c98:	68800015 	stw	r2,0(r13)
  803c9c:	69000215 	stw	r4,8(r13)
  803ca0:	19800b36 	bltu	r3,r6,803cd0 <__unpack_d+0x94>
  803ca4:	200f883a 	mov	r7,r4
  803ca8:	1811883a 	mov	r8,r3
  803cac:	2945883a 	add	r2,r5,r5
  803cb0:	1149803a 	cmpltu	r4,r2,r5
  803cb4:	3187883a 	add	r3,r6,r6
  803cb8:	20c9883a 	add	r4,r4,r3
  803cbc:	100b883a 	mov	r5,r2
  803cc0:	200d883a 	mov	r6,r4
  803cc4:	39ffffc4 	addi	r7,r7,-1
  803cc8:	413ff82e 	bgeu	r8,r4,803cac <__unpack_d+0x70>
  803ccc:	69c00215 	stw	r7,8(r13)
  803cd0:	69800415 	stw	r6,16(r13)
  803cd4:	69400315 	stw	r5,12(r13)
  803cd8:	f800283a 	ret
  803cdc:	00800084 	movi	r2,2
  803ce0:	28800015 	stw	r2,0(r5)
  803ce4:	f800283a 	ret
  803ce8:	0081ffc4 	movi	r2,2047
  803cec:	40800f26 	beq	r8,r2,803d2c <__unpack_d+0xf0>
  803cf0:	480cd63a 	srli	r6,r9,24
  803cf4:	5006923a 	slli	r3,r10,8
  803cf8:	4804923a 	slli	r2,r9,8
  803cfc:	0009883a 	mov	r4,zero
  803d00:	30c6b03a 	or	r3,r6,r3
  803d04:	01440034 	movhi	r5,4096
  803d08:	110cb03a 	or	r6,r2,r4
  803d0c:	423f0044 	addi	r8,r8,-1023
  803d10:	194eb03a 	or	r7,r3,r5
  803d14:	008000c4 	movi	r2,3
  803d18:	69c00415 	stw	r7,16(r13)
  803d1c:	6a000215 	stw	r8,8(r13)
  803d20:	68800015 	stw	r2,0(r13)
  803d24:	69800315 	stw	r6,12(r13)
  803d28:	f800283a 	ret
  803d2c:	4a84b03a 	or	r2,r9,r10
  803d30:	1000031e 	bne	r2,zero,803d40 <__unpack_d+0x104>
  803d34:	00800104 	movi	r2,4
  803d38:	28800015 	stw	r2,0(r5)
  803d3c:	f800283a 	ret
  803d40:	0009883a 	mov	r4,zero
  803d44:	01400234 	movhi	r5,8
  803d48:	4904703a 	and	r2,r9,r4
  803d4c:	5146703a 	and	r3,r10,r5
  803d50:	10c4b03a 	or	r2,r2,r3
  803d54:	10000526 	beq	r2,zero,803d6c <__unpack_d+0x130>
  803d58:	00800044 	movi	r2,1
  803d5c:	68800015 	stw	r2,0(r13)
  803d60:	6b000415 	stw	r12,16(r13)
  803d64:	6ac00315 	stw	r11,12(r13)
  803d68:	f800283a 	ret
  803d6c:	68000015 	stw	zero,0(r13)
  803d70:	003ffb06 	br	803d60 <__unpack_d+0x124>

00803d74 <__fpcmp_parts_d>:
  803d74:	21800017 	ldw	r6,0(r4)
  803d78:	00c00044 	movi	r3,1
  803d7c:	19800a2e 	bgeu	r3,r6,803da8 <__fpcmp_parts_d+0x34>
  803d80:	28800017 	ldw	r2,0(r5)
  803d84:	1880082e 	bgeu	r3,r2,803da8 <__fpcmp_parts_d+0x34>
  803d88:	00c00104 	movi	r3,4
  803d8c:	30c02626 	beq	r6,r3,803e28 <__fpcmp_parts_d+0xb4>
  803d90:	10c02226 	beq	r2,r3,803e1c <__fpcmp_parts_d+0xa8>
  803d94:	00c00084 	movi	r3,2
  803d98:	30c00526 	beq	r6,r3,803db0 <__fpcmp_parts_d+0x3c>
  803d9c:	10c0071e 	bne	r2,r3,803dbc <__fpcmp_parts_d+0x48>
  803da0:	20800117 	ldw	r2,4(r4)
  803da4:	1000091e 	bne	r2,zero,803dcc <__fpcmp_parts_d+0x58>
  803da8:	00800044 	movi	r2,1
  803dac:	f800283a 	ret
  803db0:	10c01a1e 	bne	r2,r3,803e1c <__fpcmp_parts_d+0xa8>
  803db4:	0005883a 	mov	r2,zero
  803db8:	f800283a 	ret
  803dbc:	22000117 	ldw	r8,4(r4)
  803dc0:	28800117 	ldw	r2,4(r5)
  803dc4:	40800326 	beq	r8,r2,803dd4 <__fpcmp_parts_d+0x60>
  803dc8:	403ff726 	beq	r8,zero,803da8 <__fpcmp_parts_d+0x34>
  803dcc:	00bfffc4 	movi	r2,-1
  803dd0:	f800283a 	ret
  803dd4:	20c00217 	ldw	r3,8(r4)
  803dd8:	28800217 	ldw	r2,8(r5)
  803ddc:	10fffa16 	blt	r2,r3,803dc8 <__fpcmp_parts_d+0x54>
  803de0:	18800916 	blt	r3,r2,803e08 <__fpcmp_parts_d+0x94>
  803de4:	21c00417 	ldw	r7,16(r4)
  803de8:	28c00417 	ldw	r3,16(r5)
  803dec:	21800317 	ldw	r6,12(r4)
  803df0:	28800317 	ldw	r2,12(r5)
  803df4:	19fff436 	bltu	r3,r7,803dc8 <__fpcmp_parts_d+0x54>
  803df8:	38c00526 	beq	r7,r3,803e10 <__fpcmp_parts_d+0x9c>
  803dfc:	38c00236 	bltu	r7,r3,803e08 <__fpcmp_parts_d+0x94>
  803e00:	19ffec1e 	bne	r3,r7,803db4 <__fpcmp_parts_d+0x40>
  803e04:	30bfeb2e 	bgeu	r6,r2,803db4 <__fpcmp_parts_d+0x40>
  803e08:	403fe71e 	bne	r8,zero,803da8 <__fpcmp_parts_d+0x34>
  803e0c:	003fef06 	br	803dcc <__fpcmp_parts_d+0x58>
  803e10:	11bffa2e 	bgeu	r2,r6,803dfc <__fpcmp_parts_d+0x88>
  803e14:	403fe426 	beq	r8,zero,803da8 <__fpcmp_parts_d+0x34>
  803e18:	003fec06 	br	803dcc <__fpcmp_parts_d+0x58>
  803e1c:	28800117 	ldw	r2,4(r5)
  803e20:	103fe11e 	bne	r2,zero,803da8 <__fpcmp_parts_d+0x34>
  803e24:	003fe906 	br	803dcc <__fpcmp_parts_d+0x58>
  803e28:	11bfdd1e 	bne	r2,r6,803da0 <__fpcmp_parts_d+0x2c>
  803e2c:	28c00117 	ldw	r3,4(r5)
  803e30:	20800117 	ldw	r2,4(r4)
  803e34:	1885c83a 	sub	r2,r3,r2
  803e38:	f800283a 	ret

00803e3c <__errno>:
  803e3c:	00c020b4 	movhi	r3,130
  803e40:	18f13e04 	addi	r3,r3,-15112
  803e44:	18800017 	ldw	r2,0(r3)
  803e48:	f800283a 	ret

00803e4c <free>:
  803e4c:	008020b4 	movhi	r2,130
  803e50:	10b13e04 	addi	r2,r2,-15112
  803e54:	200b883a 	mov	r5,r4
  803e58:	11000017 	ldw	r4,0(r2)
  803e5c:	08089b41 	jmpi	8089b4 <_free_r>

00803e60 <malloc>:
  803e60:	008020b4 	movhi	r2,130
  803e64:	10b13e04 	addi	r2,r2,-15112
  803e68:	200b883a 	mov	r5,r4
  803e6c:	11000017 	ldw	r4,0(r2)
  803e70:	0803e741 	jmpi	803e74 <_malloc_r>

00803e74 <_malloc_r>:
  803e74:	defff604 	addi	sp,sp,-40
  803e78:	28c002c4 	addi	r3,r5,11
  803e7c:	00800584 	movi	r2,22
  803e80:	dc800215 	stw	r18,8(sp)
  803e84:	dfc00915 	stw	ra,36(sp)
  803e88:	df000815 	stw	fp,32(sp)
  803e8c:	ddc00715 	stw	r23,28(sp)
  803e90:	dd800615 	stw	r22,24(sp)
  803e94:	dd400515 	stw	r21,20(sp)
  803e98:	dd000415 	stw	r20,16(sp)
  803e9c:	dcc00315 	stw	r19,12(sp)
  803ea0:	dc400115 	stw	r17,4(sp)
  803ea4:	dc000015 	stw	r16,0(sp)
  803ea8:	2025883a 	mov	r18,r4
  803eac:	10c01236 	bltu	r2,r3,803ef8 <_malloc_r+0x84>
  803eb0:	04400404 	movi	r17,16
  803eb4:	8940142e 	bgeu	r17,r5,803f08 <_malloc_r+0x94>
  803eb8:	00800304 	movi	r2,12
  803ebc:	0007883a 	mov	r3,zero
  803ec0:	90800015 	stw	r2,0(r18)
  803ec4:	1805883a 	mov	r2,r3
  803ec8:	dfc00917 	ldw	ra,36(sp)
  803ecc:	df000817 	ldw	fp,32(sp)
  803ed0:	ddc00717 	ldw	r23,28(sp)
  803ed4:	dd800617 	ldw	r22,24(sp)
  803ed8:	dd400517 	ldw	r21,20(sp)
  803edc:	dd000417 	ldw	r20,16(sp)
  803ee0:	dcc00317 	ldw	r19,12(sp)
  803ee4:	dc800217 	ldw	r18,8(sp)
  803ee8:	dc400117 	ldw	r17,4(sp)
  803eec:	dc000017 	ldw	r16,0(sp)
  803ef0:	dec00a04 	addi	sp,sp,40
  803ef4:	f800283a 	ret
  803ef8:	00bffe04 	movi	r2,-8
  803efc:	18a2703a 	and	r17,r3,r2
  803f00:	883fed16 	blt	r17,zero,803eb8 <_malloc_r+0x44>
  803f04:	897fec36 	bltu	r17,r5,803eb8 <_malloc_r+0x44>
  803f08:	9009883a 	mov	r4,r18
  803f0c:	080cb580 	call	80cb58 <__malloc_lock>
  803f10:	00807dc4 	movi	r2,503
  803f14:	14402b2e 	bgeu	r2,r17,803fc4 <_malloc_r+0x150>
  803f18:	8806d27a 	srli	r3,r17,9
  803f1c:	18003f1e 	bne	r3,zero,80401c <_malloc_r+0x1a8>
  803f20:	880cd0fa 	srli	r6,r17,3
  803f24:	300490fa 	slli	r2,r6,3
  803f28:	02c020b4 	movhi	r11,130
  803f2c:	5aeb8304 	addi	r11,r11,-20980
  803f30:	12cb883a 	add	r5,r2,r11
  803f34:	2c000317 	ldw	r16,12(r5)
  803f38:	580f883a 	mov	r7,r11
  803f3c:	2c00041e 	bne	r5,r16,803f50 <_malloc_r+0xdc>
  803f40:	00000a06 	br	803f6c <_malloc_r+0xf8>
  803f44:	1800860e 	bge	r3,zero,804160 <_malloc_r+0x2ec>
  803f48:	84000317 	ldw	r16,12(r16)
  803f4c:	2c000726 	beq	r5,r16,803f6c <_malloc_r+0xf8>
  803f50:	80800117 	ldw	r2,4(r16)
  803f54:	00ffff04 	movi	r3,-4
  803f58:	10c8703a 	and	r4,r2,r3
  803f5c:	2447c83a 	sub	r3,r4,r17
  803f60:	008003c4 	movi	r2,15
  803f64:	10fff70e 	bge	r2,r3,803f44 <_malloc_r+0xd0>
  803f68:	31bfffc4 	addi	r6,r6,-1
  803f6c:	32400044 	addi	r9,r6,1
  803f70:	028020b4 	movhi	r10,130
  803f74:	52ab8504 	addi	r10,r10,-20972
  803f78:	54000217 	ldw	r16,8(r10)
  803f7c:	8280a026 	beq	r16,r10,804200 <_malloc_r+0x38c>
  803f80:	80800117 	ldw	r2,4(r16)
  803f84:	00ffff04 	movi	r3,-4
  803f88:	10ca703a 	and	r5,r2,r3
  803f8c:	2c4dc83a 	sub	r6,r5,r17
  803f90:	008003c4 	movi	r2,15
  803f94:	11808316 	blt	r2,r6,8041a4 <_malloc_r+0x330>
  803f98:	52800315 	stw	r10,12(r10)
  803f9c:	52800215 	stw	r10,8(r10)
  803fa0:	30002916 	blt	r6,zero,804048 <_malloc_r+0x1d4>
  803fa4:	8147883a 	add	r3,r16,r5
  803fa8:	18800117 	ldw	r2,4(r3)
  803fac:	9009883a 	mov	r4,r18
  803fb0:	10800054 	ori	r2,r2,1
  803fb4:	18800115 	stw	r2,4(r3)
  803fb8:	080cb780 	call	80cb78 <__malloc_unlock>
  803fbc:	80c00204 	addi	r3,r16,8
  803fc0:	003fc006 	br	803ec4 <_malloc_r+0x50>
  803fc4:	02c020b4 	movhi	r11,130
  803fc8:	5aeb8304 	addi	r11,r11,-20980
  803fcc:	8ac5883a 	add	r2,r17,r11
  803fd0:	14000317 	ldw	r16,12(r2)
  803fd4:	580f883a 	mov	r7,r11
  803fd8:	8806d0fa 	srli	r3,r17,3
  803fdc:	14006c26 	beq	r2,r16,804190 <_malloc_r+0x31c>
  803fe0:	80c00117 	ldw	r3,4(r16)
  803fe4:	00bfff04 	movi	r2,-4
  803fe8:	81800317 	ldw	r6,12(r16)
  803fec:	1886703a 	and	r3,r3,r2
  803ff0:	80c7883a 	add	r3,r16,r3
  803ff4:	18800117 	ldw	r2,4(r3)
  803ff8:	81400217 	ldw	r5,8(r16)
  803ffc:	9009883a 	mov	r4,r18
  804000:	10800054 	ori	r2,r2,1
  804004:	18800115 	stw	r2,4(r3)
  804008:	31400215 	stw	r5,8(r6)
  80400c:	29800315 	stw	r6,12(r5)
  804010:	080cb780 	call	80cb78 <__malloc_unlock>
  804014:	80c00204 	addi	r3,r16,8
  804018:	003faa06 	br	803ec4 <_malloc_r+0x50>
  80401c:	00800104 	movi	r2,4
  804020:	10c0052e 	bgeu	r2,r3,804038 <_malloc_r+0x1c4>
  804024:	00800504 	movi	r2,20
  804028:	10c07836 	bltu	r2,r3,80420c <_malloc_r+0x398>
  80402c:	198016c4 	addi	r6,r3,91
  804030:	300490fa 	slli	r2,r6,3
  804034:	003fbc06 	br	803f28 <_malloc_r+0xb4>
  804038:	8804d1ba 	srli	r2,r17,6
  80403c:	11800e04 	addi	r6,r2,56
  804040:	300490fa 	slli	r2,r6,3
  804044:	003fb806 	br	803f28 <_malloc_r+0xb4>
  804048:	00807fc4 	movi	r2,511
  80404c:	1140bb36 	bltu	r2,r5,80433c <_malloc_r+0x4c8>
  804050:	2806d0fa 	srli	r3,r5,3
  804054:	573ffe04 	addi	fp,r10,-8
  804058:	00800044 	movi	r2,1
  80405c:	180890fa 	slli	r4,r3,3
  804060:	1807d0ba 	srai	r3,r3,2
  804064:	e1c00117 	ldw	r7,4(fp)
  804068:	5909883a 	add	r4,r11,r4
  80406c:	21400217 	ldw	r5,8(r4)
  804070:	10c4983a 	sll	r2,r2,r3
  804074:	81000315 	stw	r4,12(r16)
  804078:	81400215 	stw	r5,8(r16)
  80407c:	388eb03a 	or	r7,r7,r2
  804080:	2c000315 	stw	r16,12(r5)
  804084:	24000215 	stw	r16,8(r4)
  804088:	e1c00115 	stw	r7,4(fp)
  80408c:	4807883a 	mov	r3,r9
  804090:	4800cd16 	blt	r9,zero,8043c8 <_malloc_r+0x554>
  804094:	1807d0ba 	srai	r3,r3,2
  804098:	00800044 	movi	r2,1
  80409c:	10c8983a 	sll	r4,r2,r3
  8040a0:	39004436 	bltu	r7,r4,8041b4 <_malloc_r+0x340>
  8040a4:	21c4703a 	and	r2,r4,r7
  8040a8:	10000a1e 	bne	r2,zero,8040d4 <_malloc_r+0x260>
  8040ac:	2109883a 	add	r4,r4,r4
  8040b0:	00bfff04 	movi	r2,-4
  8040b4:	4884703a 	and	r2,r9,r2
  8040b8:	3906703a 	and	r3,r7,r4
  8040bc:	12400104 	addi	r9,r2,4
  8040c0:	1800041e 	bne	r3,zero,8040d4 <_malloc_r+0x260>
  8040c4:	2109883a 	add	r4,r4,r4
  8040c8:	3904703a 	and	r2,r7,r4
  8040cc:	4a400104 	addi	r9,r9,4
  8040d0:	103ffc26 	beq	r2,zero,8040c4 <_malloc_r+0x250>
  8040d4:	480490fa 	slli	r2,r9,3
  8040d8:	4819883a 	mov	r12,r9
  8040dc:	023fff04 	movi	r8,-4
  8040e0:	589b883a 	add	r13,r11,r2
  8040e4:	6807883a 	mov	r3,r13
  8040e8:	014003c4 	movi	r5,15
  8040ec:	1c000317 	ldw	r16,12(r3)
  8040f0:	1c00041e 	bne	r3,r16,804104 <_malloc_r+0x290>
  8040f4:	0000a706 	br	804394 <_malloc_r+0x520>
  8040f8:	3000ab0e 	bge	r6,zero,8043a8 <_malloc_r+0x534>
  8040fc:	84000317 	ldw	r16,12(r16)
  804100:	1c00a426 	beq	r3,r16,804394 <_malloc_r+0x520>
  804104:	80800117 	ldw	r2,4(r16)
  804108:	1204703a 	and	r2,r2,r8
  80410c:	144dc83a 	sub	r6,r2,r17
  804110:	29bff90e 	bge	r5,r6,8040f8 <_malloc_r+0x284>
  804114:	81000317 	ldw	r4,12(r16)
  804118:	80c00217 	ldw	r3,8(r16)
  80411c:	89400054 	ori	r5,r17,1
  804120:	8445883a 	add	r2,r16,r17
  804124:	20c00215 	stw	r3,8(r4)
  804128:	19000315 	stw	r4,12(r3)
  80412c:	81400115 	stw	r5,4(r16)
  804130:	1187883a 	add	r3,r2,r6
  804134:	31000054 	ori	r4,r6,1
  804138:	50800315 	stw	r2,12(r10)
  80413c:	50800215 	stw	r2,8(r10)
  804140:	19800015 	stw	r6,0(r3)
  804144:	11000115 	stw	r4,4(r2)
  804148:	12800215 	stw	r10,8(r2)
  80414c:	12800315 	stw	r10,12(r2)
  804150:	9009883a 	mov	r4,r18
  804154:	080cb780 	call	80cb78 <__malloc_unlock>
  804158:	80c00204 	addi	r3,r16,8
  80415c:	003f5906 	br	803ec4 <_malloc_r+0x50>
  804160:	8109883a 	add	r4,r16,r4
  804164:	20800117 	ldw	r2,4(r4)
  804168:	80c00217 	ldw	r3,8(r16)
  80416c:	81400317 	ldw	r5,12(r16)
  804170:	10800054 	ori	r2,r2,1
  804174:	20800115 	stw	r2,4(r4)
  804178:	28c00215 	stw	r3,8(r5)
  80417c:	19400315 	stw	r5,12(r3)
  804180:	9009883a 	mov	r4,r18
  804184:	080cb780 	call	80cb78 <__malloc_unlock>
  804188:	80c00204 	addi	r3,r16,8
  80418c:	003f4d06 	br	803ec4 <_malloc_r+0x50>
  804190:	80800204 	addi	r2,r16,8
  804194:	14000317 	ldw	r16,12(r2)
  804198:	143f911e 	bne	r2,r16,803fe0 <_malloc_r+0x16c>
  80419c:	1a400084 	addi	r9,r3,2
  8041a0:	003f7306 	br	803f70 <_malloc_r+0xfc>
  8041a4:	88c00054 	ori	r3,r17,1
  8041a8:	8445883a 	add	r2,r16,r17
  8041ac:	80c00115 	stw	r3,4(r16)
  8041b0:	003fdf06 	br	804130 <_malloc_r+0x2bc>
  8041b4:	e4000217 	ldw	r16,8(fp)
  8041b8:	00bfff04 	movi	r2,-4
  8041bc:	80c00117 	ldw	r3,4(r16)
  8041c0:	802d883a 	mov	r22,r16
  8041c4:	18aa703a 	and	r21,r3,r2
  8041c8:	ac401636 	bltu	r21,r17,804224 <_malloc_r+0x3b0>
  8041cc:	ac49c83a 	sub	r4,r21,r17
  8041d0:	008003c4 	movi	r2,15
  8041d4:	1100130e 	bge	r2,r4,804224 <_malloc_r+0x3b0>
  8041d8:	88800054 	ori	r2,r17,1
  8041dc:	8447883a 	add	r3,r16,r17
  8041e0:	80800115 	stw	r2,4(r16)
  8041e4:	20800054 	ori	r2,r4,1
  8041e8:	18800115 	stw	r2,4(r3)
  8041ec:	e0c00215 	stw	r3,8(fp)
  8041f0:	9009883a 	mov	r4,r18
  8041f4:	080cb780 	call	80cb78 <__malloc_unlock>
  8041f8:	80c00204 	addi	r3,r16,8
  8041fc:	003f3106 	br	803ec4 <_malloc_r+0x50>
  804200:	39c00117 	ldw	r7,4(r7)
  804204:	573ffe04 	addi	fp,r10,-8
  804208:	003fa006 	br	80408c <_malloc_r+0x218>
  80420c:	00801504 	movi	r2,84
  804210:	10c06736 	bltu	r2,r3,8043b0 <_malloc_r+0x53c>
  804214:	8804d33a 	srli	r2,r17,12
  804218:	11801b84 	addi	r6,r2,110
  80421c:	300490fa 	slli	r2,r6,3
  804220:	003f4106 	br	803f28 <_malloc_r+0xb4>
  804224:	d0bbf317 	ldw	r2,-4148(gp)
  804228:	d0e00517 	ldw	r3,-32748(gp)
  80422c:	053fffc4 	movi	r20,-1
  804230:	10800404 	addi	r2,r2,16
  804234:	88a7883a 	add	r19,r17,r2
  804238:	1d000326 	beq	r3,r20,804248 <_malloc_r+0x3d4>
  80423c:	98c3ffc4 	addi	r3,r19,4095
  804240:	00bc0004 	movi	r2,-4096
  804244:	18a6703a 	and	r19,r3,r2
  804248:	9009883a 	mov	r4,r18
  80424c:	980b883a 	mov	r5,r19
  804250:	08046fc0 	call	8046fc <_sbrk_r>
  804254:	1009883a 	mov	r4,r2
  804258:	15000426 	beq	r2,r20,80426c <_malloc_r+0x3f8>
  80425c:	854b883a 	add	r5,r16,r21
  804260:	1029883a 	mov	r20,r2
  804264:	11405a2e 	bgeu	r2,r5,8043d0 <_malloc_r+0x55c>
  804268:	87000c26 	beq	r16,fp,80429c <_malloc_r+0x428>
  80426c:	e4000217 	ldw	r16,8(fp)
  804270:	80c00117 	ldw	r3,4(r16)
  804274:	00bfff04 	movi	r2,-4
  804278:	1884703a 	and	r2,r3,r2
  80427c:	14400336 	bltu	r2,r17,80428c <_malloc_r+0x418>
  804280:	1449c83a 	sub	r4,r2,r17
  804284:	008003c4 	movi	r2,15
  804288:	113fd316 	blt	r2,r4,8041d8 <_malloc_r+0x364>
  80428c:	9009883a 	mov	r4,r18
  804290:	080cb780 	call	80cb78 <__malloc_unlock>
  804294:	0007883a 	mov	r3,zero
  804298:	003f0a06 	br	803ec4 <_malloc_r+0x50>
  80429c:	05c020b4 	movhi	r23,130
  8042a0:	bdcd4b04 	addi	r23,r23,13612
  8042a4:	b8800017 	ldw	r2,0(r23)
  8042a8:	988d883a 	add	r6,r19,r2
  8042ac:	b9800015 	stw	r6,0(r23)
  8042b0:	d0e00517 	ldw	r3,-32748(gp)
  8042b4:	00bfffc4 	movi	r2,-1
  8042b8:	18808e26 	beq	r3,r2,8044f4 <_malloc_r+0x680>
  8042bc:	2145c83a 	sub	r2,r4,r5
  8042c0:	3085883a 	add	r2,r6,r2
  8042c4:	b8800015 	stw	r2,0(r23)
  8042c8:	20c001cc 	andi	r3,r4,7
  8042cc:	18005f1e 	bne	r3,zero,80444c <_malloc_r+0x5d8>
  8042d0:	000b883a 	mov	r5,zero
  8042d4:	a4c5883a 	add	r2,r20,r19
  8042d8:	1083ffcc 	andi	r2,r2,4095
  8042dc:	00c40004 	movi	r3,4096
  8042e0:	1887c83a 	sub	r3,r3,r2
  8042e4:	28e7883a 	add	r19,r5,r3
  8042e8:	9009883a 	mov	r4,r18
  8042ec:	980b883a 	mov	r5,r19
  8042f0:	08046fc0 	call	8046fc <_sbrk_r>
  8042f4:	1007883a 	mov	r3,r2
  8042f8:	00bfffc4 	movi	r2,-1
  8042fc:	18807a26 	beq	r3,r2,8044e8 <_malloc_r+0x674>
  804300:	1d05c83a 	sub	r2,r3,r20
  804304:	9885883a 	add	r2,r19,r2
  804308:	10c00054 	ori	r3,r2,1
  80430c:	b8800017 	ldw	r2,0(r23)
  804310:	a021883a 	mov	r16,r20
  804314:	a0c00115 	stw	r3,4(r20)
  804318:	9885883a 	add	r2,r19,r2
  80431c:	b8800015 	stw	r2,0(r23)
  804320:	e5000215 	stw	r20,8(fp)
  804324:	b7003626 	beq	r22,fp,804400 <_malloc_r+0x58c>
  804328:	018003c4 	movi	r6,15
  80432c:	35404b36 	bltu	r6,r21,80445c <_malloc_r+0x5e8>
  804330:	00800044 	movi	r2,1
  804334:	a0800115 	stw	r2,4(r20)
  804338:	003fcd06 	br	804270 <_malloc_r+0x3fc>
  80433c:	2808d27a 	srli	r4,r5,9
  804340:	2000371e 	bne	r4,zero,804420 <_malloc_r+0x5ac>
  804344:	2808d0fa 	srli	r4,r5,3
  804348:	200690fa 	slli	r3,r4,3
  80434c:	1ad1883a 	add	r8,r3,r11
  804350:	41800217 	ldw	r6,8(r8)
  804354:	41805b26 	beq	r8,r6,8044c4 <_malloc_r+0x650>
  804358:	30800117 	ldw	r2,4(r6)
  80435c:	00ffff04 	movi	r3,-4
  804360:	10c4703a 	and	r2,r2,r3
  804364:	2880022e 	bgeu	r5,r2,804370 <_malloc_r+0x4fc>
  804368:	31800217 	ldw	r6,8(r6)
  80436c:	41bffa1e 	bne	r8,r6,804358 <_malloc_r+0x4e4>
  804370:	32000317 	ldw	r8,12(r6)
  804374:	39c00117 	ldw	r7,4(r7)
  804378:	82000315 	stw	r8,12(r16)
  80437c:	81800215 	stw	r6,8(r16)
  804380:	070020b4 	movhi	fp,130
  804384:	e72b8304 	addi	fp,fp,-20980
  804388:	34000315 	stw	r16,12(r6)
  80438c:	44000215 	stw	r16,8(r8)
  804390:	003f3e06 	br	80408c <_malloc_r+0x218>
  804394:	63000044 	addi	r12,r12,1
  804398:	608000cc 	andi	r2,r12,3
  80439c:	10005d26 	beq	r2,zero,804514 <_malloc_r+0x6a0>
  8043a0:	18c00204 	addi	r3,r3,8
  8043a4:	003f5106 	br	8040ec <_malloc_r+0x278>
  8043a8:	8089883a 	add	r4,r16,r2
  8043ac:	003f6d06 	br	804164 <_malloc_r+0x2f0>
  8043b0:	00805504 	movi	r2,340
  8043b4:	10c02036 	bltu	r2,r3,804438 <_malloc_r+0x5c4>
  8043b8:	8804d3fa 	srli	r2,r17,15
  8043bc:	11801dc4 	addi	r6,r2,119
  8043c0:	300490fa 	slli	r2,r6,3
  8043c4:	003ed806 	br	803f28 <_malloc_r+0xb4>
  8043c8:	48c000c4 	addi	r3,r9,3
  8043cc:	003f3106 	br	804094 <_malloc_r+0x220>
  8043d0:	05c020b4 	movhi	r23,130
  8043d4:	bdcd4b04 	addi	r23,r23,13612
  8043d8:	b8800017 	ldw	r2,0(r23)
  8043dc:	988d883a 	add	r6,r19,r2
  8043e0:	b9800015 	stw	r6,0(r23)
  8043e4:	293fb21e 	bne	r5,r4,8042b0 <_malloc_r+0x43c>
  8043e8:	2083ffcc 	andi	r2,r4,4095
  8043ec:	103fb01e 	bne	r2,zero,8042b0 <_malloc_r+0x43c>
  8043f0:	e4000217 	ldw	r16,8(fp)
  8043f4:	9d45883a 	add	r2,r19,r21
  8043f8:	10800054 	ori	r2,r2,1
  8043fc:	80800115 	stw	r2,4(r16)
  804400:	b8c00017 	ldw	r3,0(r23)
  804404:	d0bbf417 	ldw	r2,-4144(gp)
  804408:	10c0012e 	bgeu	r2,r3,804410 <_malloc_r+0x59c>
  80440c:	d0fbf415 	stw	r3,-4144(gp)
  804410:	d0bbf517 	ldw	r2,-4140(gp)
  804414:	10ff962e 	bgeu	r2,r3,804270 <_malloc_r+0x3fc>
  804418:	d0fbf515 	stw	r3,-4140(gp)
  80441c:	003f9406 	br	804270 <_malloc_r+0x3fc>
  804420:	00800104 	movi	r2,4
  804424:	11001e36 	bltu	r2,r4,8044a0 <_malloc_r+0x62c>
  804428:	2804d1ba 	srli	r2,r5,6
  80442c:	11000e04 	addi	r4,r2,56
  804430:	200690fa 	slli	r3,r4,3
  804434:	003fc506 	br	80434c <_malloc_r+0x4d8>
  804438:	00815504 	movi	r2,1364
  80443c:	10c01d2e 	bgeu	r2,r3,8044b4 <_malloc_r+0x640>
  804440:	01801f84 	movi	r6,126
  804444:	0080fc04 	movi	r2,1008
  804448:	003eb706 	br	803f28 <_malloc_r+0xb4>
  80444c:	00800204 	movi	r2,8
  804450:	10cbc83a 	sub	r5,r2,r3
  804454:	2169883a 	add	r20,r4,r5
  804458:	003f9e06 	br	8042d4 <_malloc_r+0x460>
  80445c:	00bffe04 	movi	r2,-8
  804460:	a93ffd04 	addi	r4,r21,-12
  804464:	2088703a 	and	r4,r4,r2
  804468:	b10b883a 	add	r5,r22,r4
  80446c:	00c00144 	movi	r3,5
  804470:	28c00215 	stw	r3,8(r5)
  804474:	28c00115 	stw	r3,4(r5)
  804478:	b0800117 	ldw	r2,4(r22)
  80447c:	1080004c 	andi	r2,r2,1
  804480:	2084b03a 	or	r2,r4,r2
  804484:	b0800115 	stw	r2,4(r22)
  804488:	313fdd2e 	bgeu	r6,r4,804400 <_malloc_r+0x58c>
  80448c:	b1400204 	addi	r5,r22,8
  804490:	9009883a 	mov	r4,r18
  804494:	08089b40 	call	8089b4 <_free_r>
  804498:	e4000217 	ldw	r16,8(fp)
  80449c:	003fd806 	br	804400 <_malloc_r+0x58c>
  8044a0:	00800504 	movi	r2,20
  8044a4:	11001536 	bltu	r2,r4,8044fc <_malloc_r+0x688>
  8044a8:	210016c4 	addi	r4,r4,91
  8044ac:	200690fa 	slli	r3,r4,3
  8044b0:	003fa606 	br	80434c <_malloc_r+0x4d8>
  8044b4:	8804d4ba 	srli	r2,r17,18
  8044b8:	11801f04 	addi	r6,r2,124
  8044bc:	300490fa 	slli	r2,r6,3
  8044c0:	003e9906 	br	803f28 <_malloc_r+0xb4>
  8044c4:	2009d0ba 	srai	r4,r4,2
  8044c8:	014020b4 	movhi	r5,130
  8044cc:	296b8304 	addi	r5,r5,-20980
  8044d0:	00c00044 	movi	r3,1
  8044d4:	28800117 	ldw	r2,4(r5)
  8044d8:	1906983a 	sll	r3,r3,r4
  8044dc:	10c4b03a 	or	r2,r2,r3
  8044e0:	28800115 	stw	r2,4(r5)
  8044e4:	003fa306 	br	804374 <_malloc_r+0x500>
  8044e8:	0027883a 	mov	r19,zero
  8044ec:	00c00044 	movi	r3,1
  8044f0:	003f8606 	br	80430c <_malloc_r+0x498>
  8044f4:	d1200515 	stw	r4,-32748(gp)
  8044f8:	003f7306 	br	8042c8 <_malloc_r+0x454>
  8044fc:	00801504 	movi	r2,84
  804500:	11001936 	bltu	r2,r4,804568 <_malloc_r+0x6f4>
  804504:	2804d33a 	srli	r2,r5,12
  804508:	11001b84 	addi	r4,r2,110
  80450c:	200690fa 	slli	r3,r4,3
  804510:	003f8e06 	br	80434c <_malloc_r+0x4d8>
  804514:	480b883a 	mov	r5,r9
  804518:	6807883a 	mov	r3,r13
  80451c:	288000cc 	andi	r2,r5,3
  804520:	18fffe04 	addi	r3,r3,-8
  804524:	297fffc4 	addi	r5,r5,-1
  804528:	10001526 	beq	r2,zero,804580 <_malloc_r+0x70c>
  80452c:	18800217 	ldw	r2,8(r3)
  804530:	10fffa26 	beq	r2,r3,80451c <_malloc_r+0x6a8>
  804534:	2109883a 	add	r4,r4,r4
  804538:	393f1e36 	bltu	r7,r4,8041b4 <_malloc_r+0x340>
  80453c:	203f1d26 	beq	r4,zero,8041b4 <_malloc_r+0x340>
  804540:	21c4703a 	and	r2,r4,r7
  804544:	10000226 	beq	r2,zero,804550 <_malloc_r+0x6dc>
  804548:	6013883a 	mov	r9,r12
  80454c:	003ee106 	br	8040d4 <_malloc_r+0x260>
  804550:	2109883a 	add	r4,r4,r4
  804554:	3904703a 	and	r2,r7,r4
  804558:	63000104 	addi	r12,r12,4
  80455c:	103ffc26 	beq	r2,zero,804550 <_malloc_r+0x6dc>
  804560:	6013883a 	mov	r9,r12
  804564:	003edb06 	br	8040d4 <_malloc_r+0x260>
  804568:	00805504 	movi	r2,340
  80456c:	11000836 	bltu	r2,r4,804590 <_malloc_r+0x71c>
  804570:	2804d3fa 	srli	r2,r5,15
  804574:	11001dc4 	addi	r4,r2,119
  804578:	200690fa 	slli	r3,r4,3
  80457c:	003f7306 	br	80434c <_malloc_r+0x4d8>
  804580:	0104303a 	nor	r2,zero,r4
  804584:	388e703a 	and	r7,r7,r2
  804588:	e1c00115 	stw	r7,4(fp)
  80458c:	003fe906 	br	804534 <_malloc_r+0x6c0>
  804590:	00815504 	movi	r2,1364
  804594:	1100032e 	bgeu	r2,r4,8045a4 <_malloc_r+0x730>
  804598:	01001f84 	movi	r4,126
  80459c:	00c0fc04 	movi	r3,1008
  8045a0:	003f6a06 	br	80434c <_malloc_r+0x4d8>
  8045a4:	2804d4ba 	srli	r2,r5,18
  8045a8:	11001f04 	addi	r4,r2,124
  8045ac:	200690fa 	slli	r3,r4,3
  8045b0:	003f6606 	br	80434c <_malloc_r+0x4d8>

008045b4 <_puts_r>:
  8045b4:	defff604 	addi	sp,sp,-40
  8045b8:	dc400715 	stw	r17,28(sp)
  8045bc:	2023883a 	mov	r17,r4
  8045c0:	2809883a 	mov	r4,r5
  8045c4:	dfc00915 	stw	ra,36(sp)
  8045c8:	dcc00815 	stw	r19,32(sp)
  8045cc:	2827883a 	mov	r19,r5
  8045d0:	08049880 	call	804988 <strlen>
  8045d4:	89400217 	ldw	r5,8(r17)
  8045d8:	00c02074 	movhi	r3,129
  8045dc:	18d4ca04 	addi	r3,r3,21288
  8045e0:	01c00044 	movi	r7,1
  8045e4:	12000044 	addi	r8,r2,1
  8045e8:	d8c00515 	stw	r3,20(sp)
  8045ec:	d9c00615 	stw	r7,24(sp)
  8045f0:	d8c00304 	addi	r3,sp,12
  8045f4:	01c00084 	movi	r7,2
  8045f8:	8809883a 	mov	r4,r17
  8045fc:	d80d883a 	mov	r6,sp
  804600:	d8c00015 	stw	r3,0(sp)
  804604:	dcc00315 	stw	r19,12(sp)
  804608:	da000215 	stw	r8,8(sp)
  80460c:	d9c00115 	stw	r7,4(sp)
  804610:	d8800415 	stw	r2,16(sp)
  804614:	0808cc80 	call	808cc8 <__sfvwrite_r>
  804618:	00ffffc4 	movi	r3,-1
  80461c:	10000626 	beq	r2,zero,804638 <_puts_r+0x84>
  804620:	1805883a 	mov	r2,r3
  804624:	dfc00917 	ldw	ra,36(sp)
  804628:	dcc00817 	ldw	r19,32(sp)
  80462c:	dc400717 	ldw	r17,28(sp)
  804630:	dec00a04 	addi	sp,sp,40
  804634:	f800283a 	ret
  804638:	00c00284 	movi	r3,10
  80463c:	1805883a 	mov	r2,r3
  804640:	dfc00917 	ldw	ra,36(sp)
  804644:	dcc00817 	ldw	r19,32(sp)
  804648:	dc400717 	ldw	r17,28(sp)
  80464c:	dec00a04 	addi	sp,sp,40
  804650:	f800283a 	ret

00804654 <puts>:
  804654:	008020b4 	movhi	r2,130
  804658:	10b13e04 	addi	r2,r2,-15112
  80465c:	200b883a 	mov	r5,r4
  804660:	11000017 	ldw	r4,0(r2)
  804664:	08045b41 	jmpi	8045b4 <_puts_r>

00804668 <srand>:
  804668:	008020b4 	movhi	r2,130
  80466c:	10b13e04 	addi	r2,r2,-15112
  804670:	11400017 	ldw	r5,0(r2)
  804674:	0007883a 	mov	r3,zero
  804678:	28c02a15 	stw	r3,168(r5)
  80467c:	29002915 	stw	r4,164(r5)
  804680:	f800283a 	ret

00804684 <rand>:
  804684:	defffe04 	addi	sp,sp,-8
  804688:	008020b4 	movhi	r2,130
  80468c:	10b13e04 	addi	r2,r2,-15112
  804690:	dc000015 	stw	r16,0(sp)
  804694:	14000017 	ldw	r16,0(r2)
  804698:	dfc00115 	stw	ra,4(sp)
  80469c:	00932574 	movhi	r2,19605
  8046a0:	109fcb44 	addi	r2,r2,32557
  8046a4:	82002917 	ldw	r8,164(r16)
  8046a8:	82402a17 	ldw	r9,168(r16)
  8046ac:	00d614b4 	movhi	r3,22610
  8046b0:	18fd0b44 	addi	r3,r3,-3027
  8046b4:	4009883a 	mov	r4,r8
  8046b8:	180f883a 	mov	r7,r3
  8046bc:	100d883a 	mov	r6,r2
  8046c0:	480b883a 	mov	r5,r9
  8046c4:	08035140 	call	803514 <__muldi3>
  8046c8:	02000044 	movi	r8,1
  8046cc:	1209883a 	add	r4,r2,r8
  8046d0:	2095803a 	cmpltu	r10,r4,r2
  8046d4:	50d5883a 	add	r10,r10,r3
  8046d8:	81002915 	stw	r4,164(r16)
  8046dc:	01200034 	movhi	r4,32768
  8046e0:	213fffc4 	addi	r4,r4,-1
  8046e4:	2284703a 	and	r2,r4,r10
  8046e8:	82802a15 	stw	r10,168(r16)
  8046ec:	dfc00117 	ldw	ra,4(sp)
  8046f0:	dc000017 	ldw	r16,0(sp)
  8046f4:	dec00204 	addi	sp,sp,8
  8046f8:	f800283a 	ret

008046fc <_sbrk_r>:
  8046fc:	defffd04 	addi	sp,sp,-12
  804700:	dc000015 	stw	r16,0(sp)
  804704:	040020b4 	movhi	r16,130
  804708:	840d3204 	addi	r16,r16,13512
  80470c:	dc400115 	stw	r17,4(sp)
  804710:	80000015 	stw	zero,0(r16)
  804714:	2023883a 	mov	r17,r4
  804718:	2809883a 	mov	r4,r5
  80471c:	dfc00215 	stw	ra,8(sp)
  804720:	080cd780 	call	80cd78 <sbrk>
  804724:	1007883a 	mov	r3,r2
  804728:	00bfffc4 	movi	r2,-1
  80472c:	18800626 	beq	r3,r2,804748 <_sbrk_r+0x4c>
  804730:	1805883a 	mov	r2,r3
  804734:	dfc00217 	ldw	ra,8(sp)
  804738:	dc400117 	ldw	r17,4(sp)
  80473c:	dc000017 	ldw	r16,0(sp)
  804740:	dec00304 	addi	sp,sp,12
  804744:	f800283a 	ret
  804748:	80800017 	ldw	r2,0(r16)
  80474c:	103ff826 	beq	r2,zero,804730 <_sbrk_r+0x34>
  804750:	88800015 	stw	r2,0(r17)
  804754:	1805883a 	mov	r2,r3
  804758:	dfc00217 	ldw	ra,8(sp)
  80475c:	dc400117 	ldw	r17,4(sp)
  804760:	dc000017 	ldw	r16,0(sp)
  804764:	dec00304 	addi	sp,sp,12
  804768:	f800283a 	ret

0080476c <sprintf>:
  80476c:	deffe504 	addi	sp,sp,-108
  804770:	2013883a 	mov	r9,r4
  804774:	dfc01815 	stw	ra,96(sp)
  804778:	d9801915 	stw	r6,100(sp)
  80477c:	d9c01a15 	stw	r7,104(sp)
  804780:	d8801904 	addi	r2,sp,100
  804784:	d8800015 	stw	r2,0(sp)
  804788:	008020b4 	movhi	r2,130
  80478c:	10b13e04 	addi	r2,r2,-15112
  804790:	11000017 	ldw	r4,0(r2)
  804794:	d9c00017 	ldw	r7,0(sp)
  804798:	00808204 	movi	r2,520
  80479c:	00e00034 	movhi	r3,32768
  8047a0:	18ffffc4 	addi	r3,r3,-1
  8047a4:	280d883a 	mov	r6,r5
  8047a8:	d880040d 	sth	r2,16(sp)
  8047ac:	d9400104 	addi	r5,sp,4
  8047b0:	00bfffc4 	movi	r2,-1
  8047b4:	d8c00615 	stw	r3,24(sp)
  8047b8:	d8c00315 	stw	r3,12(sp)
  8047bc:	da400515 	stw	r9,20(sp)
  8047c0:	d880048d 	sth	r2,18(sp)
  8047c4:	da400115 	stw	r9,4(sp)
  8047c8:	0804bc00 	call	804bc0 <___vfprintf_internal_r>
  8047cc:	d8c00117 	ldw	r3,4(sp)
  8047d0:	18000005 	stb	zero,0(r3)
  8047d4:	dfc01817 	ldw	ra,96(sp)
  8047d8:	dec01b04 	addi	sp,sp,108
  8047dc:	f800283a 	ret

008047e0 <_sprintf_r>:
  8047e0:	deffe604 	addi	sp,sp,-104
  8047e4:	2813883a 	mov	r9,r5
  8047e8:	dfc01815 	stw	ra,96(sp)
  8047ec:	d9c01915 	stw	r7,100(sp)
  8047f0:	d8801904 	addi	r2,sp,100
  8047f4:	d8800015 	stw	r2,0(sp)
  8047f8:	100f883a 	mov	r7,r2
  8047fc:	00808204 	movi	r2,520
  804800:	00e00034 	movhi	r3,32768
  804804:	18ffffc4 	addi	r3,r3,-1
  804808:	d880040d 	sth	r2,16(sp)
  80480c:	d9400104 	addi	r5,sp,4
  804810:	00bfffc4 	movi	r2,-1
  804814:	d8c00615 	stw	r3,24(sp)
  804818:	d8c00315 	stw	r3,12(sp)
  80481c:	da400515 	stw	r9,20(sp)
  804820:	d880048d 	sth	r2,18(sp)
  804824:	da400115 	stw	r9,4(sp)
  804828:	0804bc00 	call	804bc0 <___vfprintf_internal_r>
  80482c:	d8c00117 	ldw	r3,4(sp)
  804830:	18000005 	stb	zero,0(r3)
  804834:	dfc01817 	ldw	ra,96(sp)
  804838:	dec01a04 	addi	sp,sp,104
  80483c:	f800283a 	ret

00804840 <strcmp>:
  804840:	2144b03a 	or	r2,r4,r5
  804844:	108000cc 	andi	r2,r2,3
  804848:	10001d1e 	bne	r2,zero,8048c0 <strcmp+0x80>
  80484c:	200f883a 	mov	r7,r4
  804850:	28800017 	ldw	r2,0(r5)
  804854:	21000017 	ldw	r4,0(r4)
  804858:	280d883a 	mov	r6,r5
  80485c:	2080161e 	bne	r4,r2,8048b8 <strcmp+0x78>
  804860:	023fbff4 	movhi	r8,65279
  804864:	423fbfc4 	addi	r8,r8,-257
  804868:	2207883a 	add	r3,r4,r8
  80486c:	01602074 	movhi	r5,32897
  804870:	29602004 	addi	r5,r5,-32640
  804874:	1946703a 	and	r3,r3,r5
  804878:	0104303a 	nor	r2,zero,r4
  80487c:	10c4703a 	and	r2,r2,r3
  804880:	10001c1e 	bne	r2,zero,8048f4 <strcmp+0xb4>
  804884:	4013883a 	mov	r9,r8
  804888:	2811883a 	mov	r8,r5
  80488c:	00000106 	br	804894 <strcmp+0x54>
  804890:	1800181e 	bne	r3,zero,8048f4 <strcmp+0xb4>
  804894:	39c00104 	addi	r7,r7,4
  804898:	39000017 	ldw	r4,0(r7)
  80489c:	31800104 	addi	r6,r6,4
  8048a0:	31400017 	ldw	r5,0(r6)
  8048a4:	2245883a 	add	r2,r4,r9
  8048a8:	1204703a 	and	r2,r2,r8
  8048ac:	0106303a 	nor	r3,zero,r4
  8048b0:	1886703a 	and	r3,r3,r2
  8048b4:	217ff626 	beq	r4,r5,804890 <strcmp+0x50>
  8048b8:	3809883a 	mov	r4,r7
  8048bc:	300b883a 	mov	r5,r6
  8048c0:	20c00007 	ldb	r3,0(r4)
  8048c4:	1800051e 	bne	r3,zero,8048dc <strcmp+0x9c>
  8048c8:	00000606 	br	8048e4 <strcmp+0xa4>
  8048cc:	21000044 	addi	r4,r4,1
  8048d0:	20c00007 	ldb	r3,0(r4)
  8048d4:	29400044 	addi	r5,r5,1
  8048d8:	18000226 	beq	r3,zero,8048e4 <strcmp+0xa4>
  8048dc:	28800007 	ldb	r2,0(r5)
  8048e0:	18bffa26 	beq	r3,r2,8048cc <strcmp+0x8c>
  8048e4:	20c00003 	ldbu	r3,0(r4)
  8048e8:	28800003 	ldbu	r2,0(r5)
  8048ec:	1885c83a 	sub	r2,r3,r2
  8048f0:	f800283a 	ret
  8048f4:	0005883a 	mov	r2,zero
  8048f8:	f800283a 	ret

008048fc <strcpy>:
  8048fc:	2904b03a 	or	r2,r5,r4
  804900:	108000cc 	andi	r2,r2,3
  804904:	10000826 	beq	r2,zero,804928 <strcpy+0x2c>
  804908:	2007883a 	mov	r3,r4
  80490c:	28800003 	ldbu	r2,0(r5)
  804910:	29400044 	addi	r5,r5,1
  804914:	18800005 	stb	r2,0(r3)
  804918:	18c00044 	addi	r3,r3,1
  80491c:	103ffb1e 	bne	r2,zero,80490c <strcpy+0x10>
  804920:	2005883a 	mov	r2,r4
  804924:	f800283a 	ret
  804928:	29800017 	ldw	r6,0(r5)
  80492c:	023fbff4 	movhi	r8,65279
  804930:	423fbfc4 	addi	r8,r8,-257
  804934:	02a02074 	movhi	r10,32897
  804938:	52a02004 	addi	r10,r10,-32640
  80493c:	3205883a 	add	r2,r6,r8
  804940:	0186303a 	nor	r3,zero,r6
  804944:	10c4703a 	and	r2,r2,r3
  804948:	1284703a 	and	r2,r2,r10
  80494c:	200f883a 	mov	r7,r4
  804950:	10000b1e 	bne	r2,zero,804980 <strcpy+0x84>
  804954:	4013883a 	mov	r9,r8
  804958:	5011883a 	mov	r8,r10
  80495c:	39800015 	stw	r6,0(r7)
  804960:	29400104 	addi	r5,r5,4
  804964:	29800017 	ldw	r6,0(r5)
  804968:	39c00104 	addi	r7,r7,4
  80496c:	3245883a 	add	r2,r6,r9
  804970:	0186303a 	nor	r3,zero,r6
  804974:	10c4703a 	and	r2,r2,r3
  804978:	1204703a 	and	r2,r2,r8
  80497c:	103ff726 	beq	r2,zero,80495c <strcpy+0x60>
  804980:	3807883a 	mov	r3,r7
  804984:	003fe106 	br	80490c <strcpy+0x10>

00804988 <strlen>:
  804988:	208000cc 	andi	r2,r4,3
  80498c:	2011883a 	mov	r8,r4
  804990:	1000161e 	bne	r2,zero,8049ec <strlen+0x64>
  804994:	20c00017 	ldw	r3,0(r4)
  804998:	017fbff4 	movhi	r5,65279
  80499c:	297fbfc4 	addi	r5,r5,-257
  8049a0:	01e02074 	movhi	r7,32897
  8049a4:	39e02004 	addi	r7,r7,-32640
  8049a8:	1945883a 	add	r2,r3,r5
  8049ac:	11c4703a 	and	r2,r2,r7
  8049b0:	00c6303a 	nor	r3,zero,r3
  8049b4:	1886703a 	and	r3,r3,r2
  8049b8:	18000c1e 	bne	r3,zero,8049ec <strlen+0x64>
  8049bc:	280d883a 	mov	r6,r5
  8049c0:	380b883a 	mov	r5,r7
  8049c4:	21000104 	addi	r4,r4,4
  8049c8:	20800017 	ldw	r2,0(r4)
  8049cc:	1187883a 	add	r3,r2,r6
  8049d0:	1946703a 	and	r3,r3,r5
  8049d4:	0084303a 	nor	r2,zero,r2
  8049d8:	10c4703a 	and	r2,r2,r3
  8049dc:	103ff926 	beq	r2,zero,8049c4 <strlen+0x3c>
  8049e0:	20800007 	ldb	r2,0(r4)
  8049e4:	10000326 	beq	r2,zero,8049f4 <strlen+0x6c>
  8049e8:	21000044 	addi	r4,r4,1
  8049ec:	20800007 	ldb	r2,0(r4)
  8049f0:	103ffd1e 	bne	r2,zero,8049e8 <strlen+0x60>
  8049f4:	2205c83a 	sub	r2,r4,r8
  8049f8:	f800283a 	ret

008049fc <strncat>:
  8049fc:	208000cc 	andi	r2,r4,3
  804a00:	10001426 	beq	r2,zero,804a54 <strncat+0x58>
  804a04:	2007883a 	mov	r3,r4
  804a08:	00000106 	br	804a10 <strncat+0x14>
  804a0c:	18c00044 	addi	r3,r3,1
  804a10:	18800007 	ldb	r2,0(r3)
  804a14:	103ffd1e 	bne	r2,zero,804a0c <strncat+0x10>
  804a18:	31bfffc4 	addi	r6,r6,-1
  804a1c:	00bfffc4 	movi	r2,-1
  804a20:	30800a26 	beq	r6,r2,804a4c <strncat+0x50>
  804a24:	28800003 	ldbu	r2,0(r5)
  804a28:	29400044 	addi	r5,r5,1
  804a2c:	18800005 	stb	r2,0(r3)
  804a30:	10000626 	beq	r2,zero,804a4c <strncat+0x50>
  804a34:	18c00044 	addi	r3,r3,1
  804a38:	303ff71e 	bne	r6,zero,804a18 <strncat+0x1c>
  804a3c:	31bfffc4 	addi	r6,r6,-1
  804a40:	00bfffc4 	movi	r2,-1
  804a44:	18000005 	stb	zero,0(r3)
  804a48:	30bff61e 	bne	r6,r2,804a24 <strncat+0x28>
  804a4c:	2005883a 	mov	r2,r4
  804a50:	f800283a 	ret
  804a54:	20c00017 	ldw	r3,0(r4)
  804a58:	023fbff4 	movhi	r8,65279
  804a5c:	423fbfc4 	addi	r8,r8,-257
  804a60:	02a02074 	movhi	r10,32897
  804a64:	52a02004 	addi	r10,r10,-32640
  804a68:	1a05883a 	add	r2,r3,r8
  804a6c:	1284703a 	and	r2,r2,r10
  804a70:	00c6303a 	nor	r3,zero,r3
  804a74:	1886703a 	and	r3,r3,r2
  804a78:	200f883a 	mov	r7,r4
  804a7c:	1800091e 	bne	r3,zero,804aa4 <strncat+0xa8>
  804a80:	4013883a 	mov	r9,r8
  804a84:	5011883a 	mov	r8,r10
  804a88:	39c00104 	addi	r7,r7,4
  804a8c:	38800017 	ldw	r2,0(r7)
  804a90:	1247883a 	add	r3,r2,r9
  804a94:	1a06703a 	and	r3,r3,r8
  804a98:	0084303a 	nor	r2,zero,r2
  804a9c:	10c4703a 	and	r2,r2,r3
  804aa0:	103ff926 	beq	r2,zero,804a88 <strncat+0x8c>
  804aa4:	3807883a 	mov	r3,r7
  804aa8:	003fd906 	br	804a10 <strncat+0x14>

00804aac <strsep>:
  804aac:	200d883a 	mov	r6,r4
  804ab0:	21000017 	ldw	r4,0(r4)
  804ab4:	000f883a 	mov	r7,zero
  804ab8:	0804abc1 	jmpi	804abc <__strtok_r>

00804abc <__strtok_r>:
  804abc:	20002426 	beq	r4,zero,804b50 <__strtok_r+0x94>
  804ac0:	22000007 	ldb	r8,0(r4)
  804ac4:	21000044 	addi	r4,r4,1
  804ac8:	2807883a 	mov	r3,r5
  804acc:	3812c03a 	cmpne	r9,r7,zero
  804ad0:	22bfffc4 	addi	r10,r4,-1
  804ad4:	18800007 	ldb	r2,0(r3)
  804ad8:	18c00044 	addi	r3,r3,1
  804adc:	10000626 	beq	r2,zero,804af8 <__strtok_r+0x3c>
  804ae0:	40bffc1e 	bne	r8,r2,804ad4 <__strtok_r+0x18>
  804ae4:	483ff61e 	bne	r9,zero,804ac0 <__strtok_r+0x4>
  804ae8:	31000015 	stw	r4,0(r6)
  804aec:	5005883a 	mov	r2,r10
  804af0:	203fffc5 	stb	zero,-1(r4)
  804af4:	f800283a 	ret
  804af8:	2013883a 	mov	r9,r4
  804afc:	40001226 	beq	r8,zero,804b48 <__strtok_r+0x8c>
  804b00:	21c00007 	ldb	r7,0(r4)
  804b04:	2807883a 	mov	r3,r5
  804b08:	21000044 	addi	r4,r4,1
  804b0c:	4a3fffc4 	addi	r8,r9,-1
  804b10:	00000106 	br	804b18 <__strtok_r+0x5c>
  804b14:	103ffa26 	beq	r2,zero,804b00 <__strtok_r+0x44>
  804b18:	18800007 	ldb	r2,0(r3)
  804b1c:	18c00044 	addi	r3,r3,1
  804b20:	38bffc1e 	bne	r7,r2,804b14 <__strtok_r+0x58>
  804b24:	1000041e 	bne	r2,zero,804b38 <__strtok_r+0x7c>
  804b28:	0009883a 	mov	r4,zero
  804b2c:	4005883a 	mov	r2,r8
  804b30:	31000015 	stw	r4,0(r6)
  804b34:	f800283a 	ret
  804b38:	203fffc5 	stb	zero,-1(r4)
  804b3c:	4005883a 	mov	r2,r8
  804b40:	31000015 	stw	r4,0(r6)
  804b44:	f800283a 	ret
  804b48:	30000015 	stw	zero,0(r6)
  804b4c:	f800283a 	ret
  804b50:	31000017 	ldw	r4,0(r6)
  804b54:	203fda1e 	bne	r4,zero,804ac0 <__strtok_r+0x4>
  804b58:	0005883a 	mov	r2,zero
  804b5c:	f800283a 	ret

00804b60 <strtok_r>:
  804b60:	01c00044 	movi	r7,1
  804b64:	0804abc1 	jmpi	804abc <__strtok_r>

00804b68 <__sprint_r>:
  804b68:	30800217 	ldw	r2,8(r6)
  804b6c:	defffe04 	addi	sp,sp,-8
  804b70:	dc000015 	stw	r16,0(sp)
  804b74:	dfc00115 	stw	ra,4(sp)
  804b78:	3021883a 	mov	r16,r6
  804b7c:	0007883a 	mov	r3,zero
  804b80:	1000061e 	bne	r2,zero,804b9c <__sprint_r+0x34>
  804b84:	1805883a 	mov	r2,r3
  804b88:	30000115 	stw	zero,4(r6)
  804b8c:	dfc00117 	ldw	ra,4(sp)
  804b90:	dc000017 	ldw	r16,0(sp)
  804b94:	dec00204 	addi	sp,sp,8
  804b98:	f800283a 	ret
  804b9c:	0808cc80 	call	808cc8 <__sfvwrite_r>
  804ba0:	1007883a 	mov	r3,r2
  804ba4:	1805883a 	mov	r2,r3
  804ba8:	80000115 	stw	zero,4(r16)
  804bac:	80000215 	stw	zero,8(r16)
  804bb0:	dfc00117 	ldw	ra,4(sp)
  804bb4:	dc000017 	ldw	r16,0(sp)
  804bb8:	dec00204 	addi	sp,sp,8
  804bbc:	f800283a 	ret

00804bc0 <___vfprintf_internal_r>:
  804bc0:	defea404 	addi	sp,sp,-1392
  804bc4:	dd815815 	stw	r22,1376(sp)
  804bc8:	dc015215 	stw	r16,1352(sp)
  804bcc:	d9c15115 	stw	r7,1348(sp)
  804bd0:	dfc15b15 	stw	ra,1388(sp)
  804bd4:	df015a15 	stw	fp,1384(sp)
  804bd8:	ddc15915 	stw	r23,1380(sp)
  804bdc:	dd415715 	stw	r21,1372(sp)
  804be0:	dd015615 	stw	r20,1368(sp)
  804be4:	dcc15515 	stw	r19,1364(sp)
  804be8:	dc815415 	stw	r18,1360(sp)
  804bec:	dc415315 	stw	r17,1356(sp)
  804bf0:	282d883a 	mov	r22,r5
  804bf4:	3021883a 	mov	r16,r6
  804bf8:	d9014f15 	stw	r4,1340(sp)
  804bfc:	08092ec0 	call	8092ec <_localeconv_r>
  804c00:	10800017 	ldw	r2,0(r2)
  804c04:	d9c15117 	ldw	r7,1348(sp)
  804c08:	d8814915 	stw	r2,1316(sp)
  804c0c:	d8814f17 	ldw	r2,1340(sp)
  804c10:	10000226 	beq	r2,zero,804c1c <___vfprintf_internal_r+0x5c>
  804c14:	10800e17 	ldw	r2,56(r2)
  804c18:	10020d26 	beq	r2,zero,805450 <___vfprintf_internal_r+0x890>
  804c1c:	b080030b 	ldhu	r2,12(r22)
  804c20:	1080020c 	andi	r2,r2,8
  804c24:	10020e26 	beq	r2,zero,805460 <___vfprintf_internal_r+0x8a0>
  804c28:	b0800417 	ldw	r2,16(r22)
  804c2c:	10020c26 	beq	r2,zero,805460 <___vfprintf_internal_r+0x8a0>
  804c30:	b200030b 	ldhu	r8,12(r22)
  804c34:	00800284 	movi	r2,10
  804c38:	40c0068c 	andi	r3,r8,26
  804c3c:	18802f1e 	bne	r3,r2,804cfc <___vfprintf_internal_r+0x13c>
  804c40:	b080038f 	ldh	r2,14(r22)
  804c44:	10002d16 	blt	r2,zero,804cfc <___vfprintf_internal_r+0x13c>
  804c48:	b240038b 	ldhu	r9,14(r22)
  804c4c:	b2800717 	ldw	r10,28(r22)
  804c50:	b2c00917 	ldw	r11,36(r22)
  804c54:	d9014f17 	ldw	r4,1340(sp)
  804c58:	dc402904 	addi	r17,sp,164
  804c5c:	d8804004 	addi	r2,sp,256
  804c60:	00c10004 	movi	r3,1024
  804c64:	423fff4c 	andi	r8,r8,65533
  804c68:	800d883a 	mov	r6,r16
  804c6c:	880b883a 	mov	r5,r17
  804c70:	da002c0d 	sth	r8,176(sp)
  804c74:	da402c8d 	sth	r9,178(sp)
  804c78:	da803015 	stw	r10,192(sp)
  804c7c:	dac03215 	stw	r11,200(sp)
  804c80:	d8802d15 	stw	r2,180(sp)
  804c84:	d8c02e15 	stw	r3,184(sp)
  804c88:	d8802915 	stw	r2,164(sp)
  804c8c:	d8c02b15 	stw	r3,172(sp)
  804c90:	d8002f15 	stw	zero,188(sp)
  804c94:	0804bc00 	call	804bc0 <___vfprintf_internal_r>
  804c98:	d8814b15 	stw	r2,1324(sp)
  804c9c:	10000416 	blt	r2,zero,804cb0 <___vfprintf_internal_r+0xf0>
  804ca0:	d9014f17 	ldw	r4,1340(sp)
  804ca4:	880b883a 	mov	r5,r17
  804ca8:	08083980 	call	808398 <_fflush_r>
  804cac:	1002321e 	bne	r2,zero,805578 <___vfprintf_internal_r+0x9b8>
  804cb0:	d8802c0b 	ldhu	r2,176(sp)
  804cb4:	1080100c 	andi	r2,r2,64
  804cb8:	10000326 	beq	r2,zero,804cc8 <___vfprintf_internal_r+0x108>
  804cbc:	b080030b 	ldhu	r2,12(r22)
  804cc0:	10801014 	ori	r2,r2,64
  804cc4:	b080030d 	sth	r2,12(r22)
  804cc8:	d8814b17 	ldw	r2,1324(sp)
  804ccc:	dfc15b17 	ldw	ra,1388(sp)
  804cd0:	df015a17 	ldw	fp,1384(sp)
  804cd4:	ddc15917 	ldw	r23,1380(sp)
  804cd8:	dd815817 	ldw	r22,1376(sp)
  804cdc:	dd415717 	ldw	r21,1372(sp)
  804ce0:	dd015617 	ldw	r20,1368(sp)
  804ce4:	dcc15517 	ldw	r19,1364(sp)
  804ce8:	dc815417 	ldw	r18,1360(sp)
  804cec:	dc415317 	ldw	r17,1356(sp)
  804cf0:	dc015217 	ldw	r16,1352(sp)
  804cf4:	dec15c04 	addi	sp,sp,1392
  804cf8:	f800283a 	ret
  804cfc:	0005883a 	mov	r2,zero
  804d00:	0007883a 	mov	r3,zero
  804d04:	dd401904 	addi	r21,sp,100
  804d08:	d8814215 	stw	r2,1288(sp)
  804d0c:	802f883a 	mov	r23,r16
  804d10:	d8c14315 	stw	r3,1292(sp)
  804d14:	d8014b15 	stw	zero,1324(sp)
  804d18:	d8014815 	stw	zero,1312(sp)
  804d1c:	d8014415 	stw	zero,1296(sp)
  804d20:	d8014715 	stw	zero,1308(sp)
  804d24:	dd400c15 	stw	r21,48(sp)
  804d28:	d8000e15 	stw	zero,56(sp)
  804d2c:	d8000d15 	stw	zero,52(sp)
  804d30:	b8800007 	ldb	r2,0(r23)
  804d34:	10001926 	beq	r2,zero,804d9c <___vfprintf_internal_r+0x1dc>
  804d38:	00c00944 	movi	r3,37
  804d3c:	10c01726 	beq	r2,r3,804d9c <___vfprintf_internal_r+0x1dc>
  804d40:	b821883a 	mov	r16,r23
  804d44:	00000106 	br	804d4c <___vfprintf_internal_r+0x18c>
  804d48:	10c00326 	beq	r2,r3,804d58 <___vfprintf_internal_r+0x198>
  804d4c:	84000044 	addi	r16,r16,1
  804d50:	80800007 	ldb	r2,0(r16)
  804d54:	103ffc1e 	bne	r2,zero,804d48 <___vfprintf_internal_r+0x188>
  804d58:	85e7c83a 	sub	r19,r16,r23
  804d5c:	98000e26 	beq	r19,zero,804d98 <___vfprintf_internal_r+0x1d8>
  804d60:	dc800e17 	ldw	r18,56(sp)
  804d64:	dc400d17 	ldw	r17,52(sp)
  804d68:	008001c4 	movi	r2,7
  804d6c:	94e5883a 	add	r18,r18,r19
  804d70:	8c400044 	addi	r17,r17,1
  804d74:	adc00015 	stw	r23,0(r21)
  804d78:	dc800e15 	stw	r18,56(sp)
  804d7c:	acc00115 	stw	r19,4(r21)
  804d80:	dc400d15 	stw	r17,52(sp)
  804d84:	14428b16 	blt	r2,r17,8057b4 <___vfprintf_internal_r+0xbf4>
  804d88:	ad400204 	addi	r21,r21,8
  804d8c:	d9014b17 	ldw	r4,1324(sp)
  804d90:	24c9883a 	add	r4,r4,r19
  804d94:	d9014b15 	stw	r4,1324(sp)
  804d98:	802f883a 	mov	r23,r16
  804d9c:	b8800007 	ldb	r2,0(r23)
  804da0:	10013c26 	beq	r2,zero,805294 <___vfprintf_internal_r+0x6d4>
  804da4:	bdc00044 	addi	r23,r23,1
  804da8:	d8000405 	stb	zero,16(sp)
  804dac:	b8c00007 	ldb	r3,0(r23)
  804db0:	04ffffc4 	movi	r19,-1
  804db4:	d8014c15 	stw	zero,1328(sp)
  804db8:	d8014a15 	stw	zero,1320(sp)
  804dbc:	d8c14d15 	stw	r3,1332(sp)
  804dc0:	bdc00044 	addi	r23,r23,1
  804dc4:	d9414d17 	ldw	r5,1332(sp)
  804dc8:	00801604 	movi	r2,88
  804dcc:	28fff804 	addi	r3,r5,-32
  804dd0:	10c06036 	bltu	r2,r3,804f54 <___vfprintf_internal_r+0x394>
  804dd4:	18c5883a 	add	r2,r3,r3
  804dd8:	1085883a 	add	r2,r2,r2
  804ddc:	00c02034 	movhi	r3,128
  804de0:	18d37c04 	addi	r3,r3,19952
  804de4:	10c5883a 	add	r2,r2,r3
  804de8:	11000017 	ldw	r4,0(r2)
  804dec:	2000683a 	jmp	r4
  804df0:	00805d64 	muli	r2,zero,373
  804df4:	00804f54 	movui	r2,317
  804df8:	00804f54 	movui	r2,317
  804dfc:	00805d50 	cmplti	r2,zero,373
  804e00:	00804f54 	movui	r2,317
  804e04:	00804f54 	movui	r2,317
  804e08:	00804f54 	movui	r2,317
  804e0c:	00804f54 	movui	r2,317
  804e10:	00804f54 	movui	r2,317
  804e14:	00804f54 	movui	r2,317
  804e18:	00805b30 	cmpltui	r2,zero,364
  804e1c:	00805d40 	call	805d4 <__reset-0x77fa2c>
  804e20:	00804f54 	movui	r2,317
  804e24:	00805b48 	cmpgei	r2,zero,365
  804e28:	00805ddc 	xori	r2,zero,375
  804e2c:	00804f54 	movui	r2,317
  804e30:	00805dc8 	cmpgei	r2,zero,375
  804e34:	00805d90 	cmplti	r2,zero,374
  804e38:	00805d90 	cmplti	r2,zero,374
  804e3c:	00805d90 	cmplti	r2,zero,374
  804e40:	00805d90 	cmplti	r2,zero,374
  804e44:	00805d90 	cmplti	r2,zero,374
  804e48:	00805d90 	cmplti	r2,zero,374
  804e4c:	00805d90 	cmplti	r2,zero,374
  804e50:	00805d90 	cmplti	r2,zero,374
  804e54:	00805d90 	cmplti	r2,zero,374
  804e58:	00804f54 	movui	r2,317
  804e5c:	00804f54 	movui	r2,317
  804e60:	00804f54 	movui	r2,317
  804e64:	00804f54 	movui	r2,317
  804e68:	00804f54 	movui	r2,317
  804e6c:	00804f54 	movui	r2,317
  804e70:	00804f54 	movui	r2,317
  804e74:	00804f54 	movui	r2,317
  804e78:	00804f54 	movui	r2,317
  804e7c:	00804f54 	movui	r2,317
  804e80:	008055ac 	andhi	r2,zero,342
  804e84:	00805c18 	cmpnei	r2,zero,368
  804e88:	00804f54 	movui	r2,317
  804e8c:	00805c18 	cmpnei	r2,zero,368
  804e90:	00804f54 	movui	r2,317
  804e94:	00804f54 	movui	r2,317
  804e98:	00804f54 	movui	r2,317
  804e9c:	00804f54 	movui	r2,317
  804ea0:	00805d7c 	xorhi	r2,zero,373
  804ea4:	00804f54 	movui	r2,317
  804ea8:	00804f54 	movui	r2,317
  804eac:	00805660 	cmpeqi	r2,zero,345
  804eb0:	00804f54 	movui	r2,317
  804eb4:	00804f54 	movui	r2,317
  804eb8:	00804f54 	movui	r2,317
  804ebc:	00804f54 	movui	r2,317
  804ec0:	00804f54 	movui	r2,317
  804ec4:	008056ac 	andhi	r2,zero,346
  804ec8:	00804f54 	movui	r2,317
  804ecc:	00804f54 	movui	r2,317
  804ed0:	00805ccc 	andi	r2,zero,371
  804ed4:	00804f54 	movui	r2,317
  804ed8:	00804f54 	movui	r2,317
  804edc:	00804f54 	movui	r2,317
  804ee0:	00804f54 	movui	r2,317
  804ee4:	00804f54 	movui	r2,317
  804ee8:	00804f54 	movui	r2,317
  804eec:	00804f54 	movui	r2,317
  804ef0:	00804f54 	movui	r2,317
  804ef4:	00804f54 	movui	r2,317
  804ef8:	00804f54 	movui	r2,317
  804efc:	00805ca0 	cmpeqi	r2,zero,370
  804f00:	008055b8 	rdprs	r2,zero,342
  804f04:	00805c18 	cmpnei	r2,zero,368
  804f08:	00805c18 	cmpnei	r2,zero,368
  804f0c:	00805c18 	cmpnei	r2,zero,368
  804f10:	00805c04 	movi	r2,368
  804f14:	008055b8 	rdprs	r2,zero,342
  804f18:	00804f54 	movui	r2,317
  804f1c:	00804f54 	movui	r2,317
  804f20:	00805b8c 	andi	r2,zero,366
  804f24:	00804f54 	movui	r2,317
  804f28:	00805b5c 	xori	r2,zero,365
  804f2c:	0080566c 	andhi	r2,zero,345
  804f30:	00805bbc 	xorhi	r2,zero,366
  804f34:	00805ba8 	cmpgeui	r2,zero,366
  804f38:	00804f54 	movui	r2,317
  804f3c:	00805e38 	rdprs	r2,zero,376
  804f40:	00804f54 	movui	r2,317
  804f44:	008056b8 	rdprs	r2,zero,346
  804f48:	00804f54 	movui	r2,317
  804f4c:	00804f54 	movui	r2,317
  804f50:	00805d30 	cmpltui	r2,zero,372
  804f54:	d9014d17 	ldw	r4,1332(sp)
  804f58:	2000ce26 	beq	r4,zero,805294 <___vfprintf_internal_r+0x6d4>
  804f5c:	01400044 	movi	r5,1
  804f60:	d9800f04 	addi	r6,sp,60
  804f64:	d9c14015 	stw	r7,1280(sp)
  804f68:	d9414515 	stw	r5,1300(sp)
  804f6c:	d9814115 	stw	r6,1284(sp)
  804f70:	280f883a 	mov	r7,r5
  804f74:	d9000f05 	stb	r4,60(sp)
  804f78:	d8000405 	stb	zero,16(sp)
  804f7c:	d8014615 	stw	zero,1304(sp)
  804f80:	d8c14c17 	ldw	r3,1328(sp)
  804f84:	1880008c 	andi	r2,r3,2
  804f88:	1005003a 	cmpeq	r2,r2,zero
  804f8c:	d8815015 	stw	r2,1344(sp)
  804f90:	1000031e 	bne	r2,zero,804fa0 <___vfprintf_internal_r+0x3e0>
  804f94:	d9014517 	ldw	r4,1300(sp)
  804f98:	21000084 	addi	r4,r4,2
  804f9c:	d9014515 	stw	r4,1300(sp)
  804fa0:	d9414c17 	ldw	r5,1328(sp)
  804fa4:	2940210c 	andi	r5,r5,132
  804fa8:	d9414e15 	stw	r5,1336(sp)
  804fac:	28002d1e 	bne	r5,zero,805064 <___vfprintf_internal_r+0x4a4>
  804fb0:	d9814a17 	ldw	r6,1320(sp)
  804fb4:	d8814517 	ldw	r2,1300(sp)
  804fb8:	30a1c83a 	sub	r16,r6,r2
  804fbc:	0400290e 	bge	zero,r16,805064 <___vfprintf_internal_r+0x4a4>
  804fc0:	00800404 	movi	r2,16
  804fc4:	1404580e 	bge	r2,r16,806128 <___vfprintf_internal_r+0x1568>
  804fc8:	dc800e17 	ldw	r18,56(sp)
  804fcc:	dc400d17 	ldw	r17,52(sp)
  804fd0:	1027883a 	mov	r19,r2
  804fd4:	07002074 	movhi	fp,129
  804fd8:	e714e684 	addi	fp,fp,21402
  804fdc:	050001c4 	movi	r20,7
  804fe0:	00000306 	br	804ff0 <___vfprintf_internal_r+0x430>
  804fe4:	843ffc04 	addi	r16,r16,-16
  804fe8:	ad400204 	addi	r21,r21,8
  804fec:	9c00130e 	bge	r19,r16,80503c <___vfprintf_internal_r+0x47c>
  804ff0:	94800404 	addi	r18,r18,16
  804ff4:	8c400044 	addi	r17,r17,1
  804ff8:	af000015 	stw	fp,0(r21)
  804ffc:	acc00115 	stw	r19,4(r21)
  805000:	dc800e15 	stw	r18,56(sp)
  805004:	dc400d15 	stw	r17,52(sp)
  805008:	a47ff60e 	bge	r20,r17,804fe4 <___vfprintf_internal_r+0x424>
  80500c:	d9014f17 	ldw	r4,1340(sp)
  805010:	b00b883a 	mov	r5,r22
  805014:	d9800c04 	addi	r6,sp,48
  805018:	d9c15115 	stw	r7,1348(sp)
  80501c:	0804b680 	call	804b68 <__sprint_r>
  805020:	d9c15117 	ldw	r7,1348(sp)
  805024:	10009e1e 	bne	r2,zero,8052a0 <___vfprintf_internal_r+0x6e0>
  805028:	843ffc04 	addi	r16,r16,-16
  80502c:	dc800e17 	ldw	r18,56(sp)
  805030:	dc400d17 	ldw	r17,52(sp)
  805034:	dd401904 	addi	r21,sp,100
  805038:	9c3fed16 	blt	r19,r16,804ff0 <___vfprintf_internal_r+0x430>
  80503c:	9425883a 	add	r18,r18,r16
  805040:	8c400044 	addi	r17,r17,1
  805044:	008001c4 	movi	r2,7
  805048:	af000015 	stw	fp,0(r21)
  80504c:	ac000115 	stw	r16,4(r21)
  805050:	dc800e15 	stw	r18,56(sp)
  805054:	dc400d15 	stw	r17,52(sp)
  805058:	1441f516 	blt	r2,r17,805830 <___vfprintf_internal_r+0xc70>
